ARM GAS  C:\Users\tugru\AppData\Local\Temp\ccFbFeub.s 			page 1


   1              		.cpu cortex-m0plus
   2              		.arch armv6s-m
   3              		.fpu softvfp
   4              		.eabi_attribute 20, 1
   5              		.eabi_attribute 21, 1
   6              		.eabi_attribute 23, 3
   7              		.eabi_attribute 24, 1
   8              		.eabi_attribute 25, 1
   9              		.eabi_attribute 26, 1
  10              		.eabi_attribute 30, 1
  11              		.eabi_attribute 34, 0
  12              		.eabi_attribute 18, 4
  13              		.file	"main.c"
  14              		.text
  15              	.Ltext0:
  16              		.cfi_sections	.debug_frame
  17              		.section	.text.MX_GPIO_Init,"ax",%progbits
  18              		.align	1
  19              		.syntax unified
  20              		.code	16
  21              		.thumb_func
  23              	MX_GPIO_Init:
  24              	.LFB450:
  25              		.file 1 "Core/Src/main.c"
   1:Core/Src/main.c **** /* USER CODE BEGIN Header */
   2:Core/Src/main.c **** /**
   3:Core/Src/main.c ****   ******************************************************************************
   4:Core/Src/main.c ****   * @file           : main.c
   5:Core/Src/main.c ****   * @brief          : Main program body
   6:Core/Src/main.c ****   ******************************************************************************
   7:Core/Src/main.c ****   * @attention
   8:Core/Src/main.c ****   *
   9:Core/Src/main.c ****   * Copyright (c) 2025 STMicroelectronics.
  10:Core/Src/main.c ****   * All rights reserved.
  11:Core/Src/main.c ****   *
  12:Core/Src/main.c ****   * This software is licensed under terms that can be found in the LICENSE file
  13:Core/Src/main.c ****   * in the root directory of this software component.
  14:Core/Src/main.c ****   * If no LICENSE file comes with this software, it is provided AS-IS.
  15:Core/Src/main.c ****   *
  16:Core/Src/main.c ****   ******************************************************************************
  17:Core/Src/main.c ****   */
  18:Core/Src/main.c **** /* USER CODE END Header */
  19:Core/Src/main.c **** /* Includes ------------------------------------------------------------------*/
  20:Core/Src/main.c **** #include "main.h"
  21:Core/Src/main.c **** 
  22:Core/Src/main.c **** /* Private includes ----------------------------------------------------------*/
  23:Core/Src/main.c **** /* USER CODE BEGIN Includes */
  24:Core/Src/main.c **** #include "string.h"
  25:Core/Src/main.c **** #include "stdio.h"
  26:Core/Src/main.c **** /* USER CODE END Includes */
  27:Core/Src/main.c **** 
  28:Core/Src/main.c **** /* Private typedef -----------------------------------------------------------*/
  29:Core/Src/main.c **** /* USER CODE BEGIN PTD */
  30:Core/Src/main.c **** 
  31:Core/Src/main.c **** /* USER CODE END PTD */
  32:Core/Src/main.c **** 
  33:Core/Src/main.c **** /* Private define ------------------------------------------------------------*/
ARM GAS  C:\Users\tugru\AppData\Local\Temp\ccFbFeub.s 			page 2


  34:Core/Src/main.c **** /* USER CODE BEGIN PD */
  35:Core/Src/main.c **** 
  36:Core/Src/main.c **** /* USER CODE END PD */
  37:Core/Src/main.c **** 
  38:Core/Src/main.c **** /* Private macro -------------------------------------------------------------*/
  39:Core/Src/main.c **** /* USER CODE BEGIN PM */
  40:Core/Src/main.c **** 
  41:Core/Src/main.c **** /* USER CODE END PM */
  42:Core/Src/main.c **** 
  43:Core/Src/main.c **** /* Private variables ---------------------------------------------------------*/
  44:Core/Src/main.c **** ADC_HandleTypeDef hadc1;
  45:Core/Src/main.c **** DMA_HandleTypeDef hdma_adc1;
  46:Core/Src/main.c **** 
  47:Core/Src/main.c **** SPI_HandleTypeDef hspi2;
  48:Core/Src/main.c **** 
  49:Core/Src/main.c **** UART_HandleTypeDef huart2;
  50:Core/Src/main.c **** 
  51:Core/Src/main.c **** /* USER CODE BEGIN PV */
  52:Core/Src/main.c **** uint16_t adc_0=0;
  53:Core/Src/main.c **** uint16_t adc_1=0;
  54:Core/Src/main.c **** uint8_t rawValues[2];
  55:Core/Src/main.c **** char msg[100];
  56:Core/Src/main.c **** /* USER CODE END PV */
  57:Core/Src/main.c **** 
  58:Core/Src/main.c **** /* Private function prototypes -----------------------------------------------*/
  59:Core/Src/main.c **** void SystemClock_Config(void);
  60:Core/Src/main.c **** static void MX_GPIO_Init(void);
  61:Core/Src/main.c **** static void MX_DMA_Init(void);
  62:Core/Src/main.c **** static void MX_ADC1_Init(void);
  63:Core/Src/main.c **** static void MX_SPI2_Init(void);
  64:Core/Src/main.c **** static void MX_USART2_UART_Init(void);
  65:Core/Src/main.c **** /* USER CODE BEGIN PFP */
  66:Core/Src/main.c **** 
  67:Core/Src/main.c **** /* USER CODE END PFP */
  68:Core/Src/main.c **** 
  69:Core/Src/main.c **** /* Private user code ---------------------------------------------------------*/
  70:Core/Src/main.c **** /* USER CODE BEGIN 0 */
  71:Core/Src/main.c **** 
  72:Core/Src/main.c **** uint8_t convCompleted=0;
  73:Core/Src/main.c **** void HAL_ADC_ConvCpltCallback(ADC_HandleTypeDef *hadc)
  74:Core/Src/main.c **** {
  75:Core/Src/main.c ****   convCompleted=1;
  76:Core/Src/main.c **** 
  77:Core/Src/main.c **** }
  78:Core/Src/main.c **** /* USER CODE END 0 */
  79:Core/Src/main.c **** 
  80:Core/Src/main.c **** /**
  81:Core/Src/main.c ****   * @brief  The application entry point.
  82:Core/Src/main.c ****   * @retval int
  83:Core/Src/main.c ****   */
  84:Core/Src/main.c **** int main(void)
  85:Core/Src/main.c **** {
  86:Core/Src/main.c **** 
  87:Core/Src/main.c ****   /* USER CODE BEGIN 1 */
  88:Core/Src/main.c **** 
  89:Core/Src/main.c ****   /* USER CODE END 1 */
  90:Core/Src/main.c **** 
ARM GAS  C:\Users\tugru\AppData\Local\Temp\ccFbFeub.s 			page 3


  91:Core/Src/main.c ****   /* MCU Configuration--------------------------------------------------------*/
  92:Core/Src/main.c **** 
  93:Core/Src/main.c ****   /* Reset of all peripherals, Initializes the Flash interface and the Systick. */
  94:Core/Src/main.c ****   HAL_Init();
  95:Core/Src/main.c **** 
  96:Core/Src/main.c ****   /* USER CODE BEGIN Init */
  97:Core/Src/main.c **** 
  98:Core/Src/main.c ****   /* USER CODE END Init */
  99:Core/Src/main.c **** 
 100:Core/Src/main.c ****   /* Configure the system clock */
 101:Core/Src/main.c ****   SystemClock_Config();
 102:Core/Src/main.c **** 
 103:Core/Src/main.c ****   /* USER CODE BEGIN SysInit */
 104:Core/Src/main.c **** 
 105:Core/Src/main.c ****   /* USER CODE END SysInit */
 106:Core/Src/main.c **** 
 107:Core/Src/main.c ****   /* Initialize all configured peripherals */
 108:Core/Src/main.c ****   MX_GPIO_Init();
 109:Core/Src/main.c ****   MX_DMA_Init();
 110:Core/Src/main.c ****   MX_ADC1_Init();
 111:Core/Src/main.c ****   MX_SPI2_Init();
 112:Core/Src/main.c ****   MX_USART2_UART_Init();
 113:Core/Src/main.c ****   /* USER CODE BEGIN 2 */
 114:Core/Src/main.c ****   HAL_ADC_Start_DMA(&hadc1,(uint32_t *) rawValues,2);
 115:Core/Src/main.c ****   /* USER CODE END 2 */
 116:Core/Src/main.c **** 
 117:Core/Src/main.c ****   /* Infinite loop */
 118:Core/Src/main.c ****   /* USER CODE BEGIN WHILE */
 119:Core/Src/main.c ****   while (1)
 120:Core/Src/main.c ****   {
 121:Core/Src/main.c ****     /* USER CODE END WHILE */
 122:Core/Src/main.c **** 
 123:Core/Src/main.c ****     /* USER CODE BEGIN 3 */
 124:Core/Src/main.c ****     while (!convCompleted);
 125:Core/Src/main.c ****     for (uint8_t i =0; i< hadc1.Init.NbrOfConversion; i++){
 126:Core/Src/main.c ****       adc_0=rawValues[0];
 127:Core/Src/main.c ****       adc_1=rawValues[1];
 128:Core/Src/main.c ****       /* code */
 129:Core/Src/main.c ****     }
 130:Core/Src/main.c ****     sprintf(msg,"ADC0: %d\t\t, ADC1: %d\n\r",adc_0,adc_1);
 131:Core/Src/main.c ****     HAL_UART_Transmit(&huart2,(uint8_t *)msg,strlen(msg),HAL_MAX_DELAY);
 132:Core/Src/main.c ****     HAL_Delay(1000);
 133:Core/Src/main.c ****   }
 134:Core/Src/main.c ****   /* USER CODE END 3 */
 135:Core/Src/main.c **** }
 136:Core/Src/main.c **** 
 137:Core/Src/main.c **** /**
 138:Core/Src/main.c ****   * @brief System Clock Configuration
 139:Core/Src/main.c ****   * @retval None
 140:Core/Src/main.c ****   */
 141:Core/Src/main.c **** void SystemClock_Config(void)
 142:Core/Src/main.c **** {
 143:Core/Src/main.c ****   RCC_OscInitTypeDef RCC_OscInitStruct = {0};
 144:Core/Src/main.c ****   RCC_ClkInitTypeDef RCC_ClkInitStruct = {0};
 145:Core/Src/main.c **** 
 146:Core/Src/main.c ****   /** Configure the main internal regulator output voltage
 147:Core/Src/main.c ****   */
ARM GAS  C:\Users\tugru\AppData\Local\Temp\ccFbFeub.s 			page 4


 148:Core/Src/main.c ****   HAL_PWREx_ControlVoltageScaling(PWR_REGULATOR_VOLTAGE_SCALE1);
 149:Core/Src/main.c **** 
 150:Core/Src/main.c ****   /** Initializes the RCC Oscillators according to the specified parameters
 151:Core/Src/main.c ****   * in the RCC_OscInitTypeDef structure.
 152:Core/Src/main.c ****   */
 153:Core/Src/main.c ****   RCC_OscInitStruct.OscillatorType = RCC_OSCILLATORTYPE_HSI;
 154:Core/Src/main.c ****   RCC_OscInitStruct.HSIState = RCC_HSI_ON;
 155:Core/Src/main.c ****   RCC_OscInitStruct.HSIDiv = RCC_HSI_DIV1;
 156:Core/Src/main.c ****   RCC_OscInitStruct.HSICalibrationValue = RCC_HSICALIBRATION_DEFAULT;
 157:Core/Src/main.c ****   RCC_OscInitStruct.PLL.PLLState = RCC_PLL_NONE;
 158:Core/Src/main.c ****   if (HAL_RCC_OscConfig(&RCC_OscInitStruct) != HAL_OK)
 159:Core/Src/main.c ****   {
 160:Core/Src/main.c ****     Error_Handler();
 161:Core/Src/main.c ****   }
 162:Core/Src/main.c **** 
 163:Core/Src/main.c ****   /** Initializes the CPU, AHB and APB buses clocks
 164:Core/Src/main.c ****   */
 165:Core/Src/main.c ****   RCC_ClkInitStruct.ClockType = RCC_CLOCKTYPE_HCLK|RCC_CLOCKTYPE_SYSCLK
 166:Core/Src/main.c ****                               |RCC_CLOCKTYPE_PCLK1;
 167:Core/Src/main.c ****   RCC_ClkInitStruct.SYSCLKSource = RCC_SYSCLKSOURCE_HSI;
 168:Core/Src/main.c ****   RCC_ClkInitStruct.AHBCLKDivider = RCC_SYSCLK_DIV1;
 169:Core/Src/main.c ****   RCC_ClkInitStruct.APB1CLKDivider = RCC_HCLK_DIV1;
 170:Core/Src/main.c **** 
 171:Core/Src/main.c ****   if (HAL_RCC_ClockConfig(&RCC_ClkInitStruct, FLASH_LATENCY_0) != HAL_OK)
 172:Core/Src/main.c ****   {
 173:Core/Src/main.c ****     Error_Handler();
 174:Core/Src/main.c ****   }
 175:Core/Src/main.c **** }
 176:Core/Src/main.c **** 
 177:Core/Src/main.c **** /**
 178:Core/Src/main.c ****   * @brief ADC1 Initialization Function
 179:Core/Src/main.c ****   * @param None
 180:Core/Src/main.c ****   * @retval None
 181:Core/Src/main.c ****   */
 182:Core/Src/main.c **** static void MX_ADC1_Init(void)
 183:Core/Src/main.c **** {
 184:Core/Src/main.c **** 
 185:Core/Src/main.c ****   /* USER CODE BEGIN ADC1_Init 0 */
 186:Core/Src/main.c **** 
 187:Core/Src/main.c ****   /* USER CODE END ADC1_Init 0 */
 188:Core/Src/main.c **** 
 189:Core/Src/main.c ****   ADC_ChannelConfTypeDef sConfig = {0};
 190:Core/Src/main.c **** 
 191:Core/Src/main.c ****   /* USER CODE BEGIN ADC1_Init 1 */
 192:Core/Src/main.c **** 
 193:Core/Src/main.c ****   /* USER CODE END ADC1_Init 1 */
 194:Core/Src/main.c **** 
 195:Core/Src/main.c ****   /** Configure the global features of the ADC (Clock, Resolution, Data Alignment and number of con
 196:Core/Src/main.c ****   */
 197:Core/Src/main.c ****   hadc1.Instance = ADC1;
 198:Core/Src/main.c ****   hadc1.Init.ClockPrescaler = ADC_CLOCK_ASYNC_DIV2;
 199:Core/Src/main.c ****   hadc1.Init.Resolution = ADC_RESOLUTION_12B;
 200:Core/Src/main.c ****   hadc1.Init.DataAlign = ADC_DATAALIGN_RIGHT;
 201:Core/Src/main.c ****   hadc1.Init.ScanConvMode = ADC_SCAN_ENABLE;
 202:Core/Src/main.c ****   hadc1.Init.EOCSelection = ADC_EOC_SINGLE_CONV;
 203:Core/Src/main.c ****   hadc1.Init.LowPowerAutoWait = DISABLE;
 204:Core/Src/main.c ****   hadc1.Init.LowPowerAutoPowerOff = DISABLE;
ARM GAS  C:\Users\tugru\AppData\Local\Temp\ccFbFeub.s 			page 5


 205:Core/Src/main.c ****   hadc1.Init.ContinuousConvMode = DISABLE;
 206:Core/Src/main.c ****   hadc1.Init.NbrOfConversion = 2;
 207:Core/Src/main.c ****   hadc1.Init.DiscontinuousConvMode = DISABLE;
 208:Core/Src/main.c ****   hadc1.Init.ExternalTrigConv = ADC_SOFTWARE_START;
 209:Core/Src/main.c ****   hadc1.Init.ExternalTrigConvEdge = ADC_EXTERNALTRIGCONVEDGE_NONE;
 210:Core/Src/main.c ****   hadc1.Init.DMAContinuousRequests = DISABLE;
 211:Core/Src/main.c ****   hadc1.Init.Overrun = ADC_OVR_DATA_PRESERVED;
 212:Core/Src/main.c ****   hadc1.Init.SamplingTimeCommon1 = ADC_SAMPLETIME_160CYCLES_5;
 213:Core/Src/main.c ****   hadc1.Init.SamplingTimeCommon2 = ADC_SAMPLETIME_160CYCLES_5;
 214:Core/Src/main.c ****   hadc1.Init.OversamplingMode = DISABLE;
 215:Core/Src/main.c ****   hadc1.Init.TriggerFrequencyMode = ADC_TRIGGER_FREQ_HIGH;
 216:Core/Src/main.c ****   if (HAL_ADC_Init(&hadc1) != HAL_OK)
 217:Core/Src/main.c ****   {
 218:Core/Src/main.c ****     Error_Handler();
 219:Core/Src/main.c ****   }
 220:Core/Src/main.c **** 
 221:Core/Src/main.c ****   /** Configure Regular Channel
 222:Core/Src/main.c ****   */
 223:Core/Src/main.c ****   sConfig.Channel = ADC_CHANNEL_0;
 224:Core/Src/main.c ****   sConfig.Rank = ADC_REGULAR_RANK_2;
 225:Core/Src/main.c ****   sConfig.SamplingTime = ADC_SAMPLINGTIME_COMMON_1;
 226:Core/Src/main.c ****   if (HAL_ADC_ConfigChannel(&hadc1, &sConfig) != HAL_OK)
 227:Core/Src/main.c ****   {
 228:Core/Src/main.c ****     Error_Handler();
 229:Core/Src/main.c ****   }
 230:Core/Src/main.c ****   /* USER CODE BEGIN ADC1_Init 2 */
 231:Core/Src/main.c **** 
 232:Core/Src/main.c ****   /* USER CODE END ADC1_Init 2 */
 233:Core/Src/main.c **** 
 234:Core/Src/main.c **** }
 235:Core/Src/main.c **** 
 236:Core/Src/main.c **** /**
 237:Core/Src/main.c ****   * @brief SPI2 Initialization Function
 238:Core/Src/main.c ****   * @param None
 239:Core/Src/main.c ****   * @retval None
 240:Core/Src/main.c ****   */
 241:Core/Src/main.c **** static void MX_SPI2_Init(void)
 242:Core/Src/main.c **** {
 243:Core/Src/main.c **** 
 244:Core/Src/main.c ****   /* USER CODE BEGIN SPI2_Init 0 */
 245:Core/Src/main.c **** 
 246:Core/Src/main.c ****   /* USER CODE END SPI2_Init 0 */
 247:Core/Src/main.c **** 
 248:Core/Src/main.c ****   /* USER CODE BEGIN SPI2_Init 1 */
 249:Core/Src/main.c **** 
 250:Core/Src/main.c ****   /* USER CODE END SPI2_Init 1 */
 251:Core/Src/main.c ****   /* SPI2 parameter configuration*/
 252:Core/Src/main.c ****   hspi2.Instance = SPI2;
 253:Core/Src/main.c ****   hspi2.Init.Mode = SPI_MODE_SLAVE;
 254:Core/Src/main.c ****   hspi2.Init.Direction = SPI_DIRECTION_2LINES;
 255:Core/Src/main.c ****   hspi2.Init.DataSize = SPI_DATASIZE_8BIT;
 256:Core/Src/main.c ****   hspi2.Init.CLKPolarity = SPI_POLARITY_LOW;
 257:Core/Src/main.c ****   hspi2.Init.CLKPhase = SPI_PHASE_1EDGE;
 258:Core/Src/main.c ****   hspi2.Init.NSS = SPI_NSS_HARD_INPUT;
 259:Core/Src/main.c ****   hspi2.Init.FirstBit = SPI_FIRSTBIT_MSB;
 260:Core/Src/main.c ****   hspi2.Init.TIMode = SPI_TIMODE_DISABLE;
 261:Core/Src/main.c ****   hspi2.Init.CRCCalculation = SPI_CRCCALCULATION_DISABLE;
ARM GAS  C:\Users\tugru\AppData\Local\Temp\ccFbFeub.s 			page 6


 262:Core/Src/main.c ****   hspi2.Init.CRCPolynomial = 7;
 263:Core/Src/main.c ****   hspi2.Init.CRCLength = SPI_CRC_LENGTH_DATASIZE;
 264:Core/Src/main.c ****   hspi2.Init.NSSPMode = SPI_NSS_PULSE_DISABLE;
 265:Core/Src/main.c ****   if (HAL_SPI_Init(&hspi2) != HAL_OK)
 266:Core/Src/main.c ****   {
 267:Core/Src/main.c ****     Error_Handler();
 268:Core/Src/main.c ****   }
 269:Core/Src/main.c ****   /* USER CODE BEGIN SPI2_Init 2 */
 270:Core/Src/main.c **** 
 271:Core/Src/main.c ****   /* USER CODE END SPI2_Init 2 */
 272:Core/Src/main.c **** 
 273:Core/Src/main.c **** }
 274:Core/Src/main.c **** 
 275:Core/Src/main.c **** /**
 276:Core/Src/main.c ****   * @brief USART2 Initialization Function
 277:Core/Src/main.c ****   * @param None
 278:Core/Src/main.c ****   * @retval None
 279:Core/Src/main.c ****   */
 280:Core/Src/main.c **** static void MX_USART2_UART_Init(void)
 281:Core/Src/main.c **** {
 282:Core/Src/main.c **** 
 283:Core/Src/main.c ****   /* USER CODE BEGIN USART2_Init 0 */
 284:Core/Src/main.c **** 
 285:Core/Src/main.c ****   /* USER CODE END USART2_Init 0 */
 286:Core/Src/main.c **** 
 287:Core/Src/main.c ****   /* USER CODE BEGIN USART2_Init 1 */
 288:Core/Src/main.c **** 
 289:Core/Src/main.c ****   /* USER CODE END USART2_Init 1 */
 290:Core/Src/main.c ****   huart2.Instance = USART2;
 291:Core/Src/main.c ****   huart2.Init.BaudRate = 115200;
 292:Core/Src/main.c ****   huart2.Init.WordLength = UART_WORDLENGTH_8B;
 293:Core/Src/main.c ****   huart2.Init.StopBits = UART_STOPBITS_1;
 294:Core/Src/main.c ****   huart2.Init.Parity = UART_PARITY_NONE;
 295:Core/Src/main.c ****   huart2.Init.Mode = UART_MODE_TX_RX;
 296:Core/Src/main.c ****   huart2.Init.HwFlowCtl = UART_HWCONTROL_NONE;
 297:Core/Src/main.c ****   huart2.Init.OverSampling = UART_OVERSAMPLING_16;
 298:Core/Src/main.c ****   huart2.Init.OneBitSampling = UART_ONE_BIT_SAMPLE_DISABLE;
 299:Core/Src/main.c ****   huart2.Init.ClockPrescaler = UART_PRESCALER_DIV1;
 300:Core/Src/main.c ****   huart2.AdvancedInit.AdvFeatureInit = UART_ADVFEATURE_NO_INIT;
 301:Core/Src/main.c ****   if (HAL_UART_Init(&huart2) != HAL_OK)
 302:Core/Src/main.c ****   {
 303:Core/Src/main.c ****     Error_Handler();
 304:Core/Src/main.c ****   }
 305:Core/Src/main.c ****   if (HAL_UARTEx_SetTxFifoThreshold(&huart2, UART_TXFIFO_THRESHOLD_1_8) != HAL_OK)
 306:Core/Src/main.c ****   {
 307:Core/Src/main.c ****     Error_Handler();
 308:Core/Src/main.c ****   }
 309:Core/Src/main.c ****   if (HAL_UARTEx_SetRxFifoThreshold(&huart2, UART_RXFIFO_THRESHOLD_1_8) != HAL_OK)
 310:Core/Src/main.c ****   {
 311:Core/Src/main.c ****     Error_Handler();
 312:Core/Src/main.c ****   }
 313:Core/Src/main.c ****   if (HAL_UARTEx_DisableFifoMode(&huart2) != HAL_OK)
 314:Core/Src/main.c ****   {
 315:Core/Src/main.c ****     Error_Handler();
 316:Core/Src/main.c ****   }
 317:Core/Src/main.c ****   /* USER CODE BEGIN USART2_Init 2 */
 318:Core/Src/main.c **** 
ARM GAS  C:\Users\tugru\AppData\Local\Temp\ccFbFeub.s 			page 7


 319:Core/Src/main.c ****   /* USER CODE END USART2_Init 2 */
 320:Core/Src/main.c **** 
 321:Core/Src/main.c **** }
 322:Core/Src/main.c **** 
 323:Core/Src/main.c **** /**
 324:Core/Src/main.c ****   * Enable DMA controller clock
 325:Core/Src/main.c ****   */
 326:Core/Src/main.c **** static void MX_DMA_Init(void)
 327:Core/Src/main.c **** {
 328:Core/Src/main.c **** 
 329:Core/Src/main.c ****   /* DMA controller clock enable */
 330:Core/Src/main.c ****   __HAL_RCC_DMA1_CLK_ENABLE();
 331:Core/Src/main.c **** 
 332:Core/Src/main.c ****   /* DMA interrupt init */
 333:Core/Src/main.c ****   /* DMA1_Channel1_IRQn interrupt configuration */
 334:Core/Src/main.c ****   HAL_NVIC_SetPriority(DMA1_Channel1_IRQn, 0, 0);
 335:Core/Src/main.c ****   HAL_NVIC_EnableIRQ(DMA1_Channel1_IRQn);
 336:Core/Src/main.c **** 
 337:Core/Src/main.c **** }
 338:Core/Src/main.c **** 
 339:Core/Src/main.c **** /**
 340:Core/Src/main.c ****   * @brief GPIO Initialization Function
 341:Core/Src/main.c ****   * @param None
 342:Core/Src/main.c ****   * @retval None
 343:Core/Src/main.c ****   */
 344:Core/Src/main.c **** static void MX_GPIO_Init(void)
 345:Core/Src/main.c **** {
  26              		.loc 1 345 1 view -0
  27              		.cfi_startproc
  28              		@ args = 0, pretend = 0, frame = 40
  29              		@ frame_needed = 0, uses_anonymous_args = 0
  30 0000 F0B5     		push	{r4, r5, r6, r7, lr}
  31              	.LCFI0:
  32              		.cfi_def_cfa_offset 20
  33              		.cfi_offset 4, -20
  34              		.cfi_offset 5, -16
  35              		.cfi_offset 6, -12
  36              		.cfi_offset 7, -8
  37              		.cfi_offset 14, -4
  38 0002 8BB0     		sub	sp, sp, #44
  39              	.LCFI1:
  40              		.cfi_def_cfa_offset 64
 346:Core/Src/main.c ****   GPIO_InitTypeDef GPIO_InitStruct = {0};
  41              		.loc 1 346 3 view .LVU1
  42              		.loc 1 346 20 is_stmt 0 view .LVU2
  43 0004 1422     		movs	r2, #20
  44 0006 0021     		movs	r1, #0
  45 0008 05A8     		add	r0, sp, #20
  46 000a FFF7FEFF 		bl	memset
  47              	.LVL0:
 347:Core/Src/main.c **** /* USER CODE BEGIN MX_GPIO_Init_1 */
 348:Core/Src/main.c **** /* USER CODE END MX_GPIO_Init_1 */
 349:Core/Src/main.c **** 
 350:Core/Src/main.c ****   /* GPIO Ports Clock Enable */
 351:Core/Src/main.c ****   __HAL_RCC_GPIOC_CLK_ENABLE();
  48              		.loc 1 351 3 is_stmt 1 view .LVU3
  49              	.LBB4:
ARM GAS  C:\Users\tugru\AppData\Local\Temp\ccFbFeub.s 			page 8


  50              		.loc 1 351 3 view .LVU4
  51              		.loc 1 351 3 view .LVU5
  52 000e 194B     		ldr	r3, .L2
  53 0010 596B     		ldr	r1, [r3, #52]
  54 0012 0422     		movs	r2, #4
  55 0014 1143     		orrs	r1, r2
  56 0016 5963     		str	r1, [r3, #52]
  57              		.loc 1 351 3 view .LVU6
  58 0018 596B     		ldr	r1, [r3, #52]
  59 001a 0A40     		ands	r2, r1
  60 001c 0192     		str	r2, [sp, #4]
  61              		.loc 1 351 3 view .LVU7
  62 001e 019A     		ldr	r2, [sp, #4]
  63              	.LBE4:
  64              		.loc 1 351 3 view .LVU8
 352:Core/Src/main.c ****   __HAL_RCC_GPIOF_CLK_ENABLE();
  65              		.loc 1 352 3 view .LVU9
  66              	.LBB5:
  67              		.loc 1 352 3 view .LVU10
  68              		.loc 1 352 3 view .LVU11
  69 0020 5A6B     		ldr	r2, [r3, #52]
  70 0022 2026     		movs	r6, #32
  71 0024 3243     		orrs	r2, r6
  72 0026 5A63     		str	r2, [r3, #52]
  73              		.loc 1 352 3 view .LVU12
  74 0028 5A6B     		ldr	r2, [r3, #52]
  75 002a 3240     		ands	r2, r6
  76 002c 0292     		str	r2, [sp, #8]
  77              		.loc 1 352 3 view .LVU13
  78 002e 029A     		ldr	r2, [sp, #8]
  79              	.LBE5:
  80              		.loc 1 352 3 view .LVU14
 353:Core/Src/main.c ****   __HAL_RCC_GPIOA_CLK_ENABLE();
  81              		.loc 1 353 3 view .LVU15
  82              	.LBB6:
  83              		.loc 1 353 3 view .LVU16
  84              		.loc 1 353 3 view .LVU17
  85 0030 5A6B     		ldr	r2, [r3, #52]
  86 0032 0125     		movs	r5, #1
  87 0034 2A43     		orrs	r2, r5
  88 0036 5A63     		str	r2, [r3, #52]
  89              		.loc 1 353 3 view .LVU18
  90 0038 5A6B     		ldr	r2, [r3, #52]
  91 003a 2A40     		ands	r2, r5
  92 003c 0392     		str	r2, [sp, #12]
  93              		.loc 1 353 3 view .LVU19
  94 003e 039A     		ldr	r2, [sp, #12]
  95              	.LBE6:
  96              		.loc 1 353 3 view .LVU20
 354:Core/Src/main.c ****   __HAL_RCC_GPIOB_CLK_ENABLE();
  97              		.loc 1 354 3 view .LVU21
  98              	.LBB7:
  99              		.loc 1 354 3 view .LVU22
 100              		.loc 1 354 3 view .LVU23
 101 0040 5A6B     		ldr	r2, [r3, #52]
 102 0042 0224     		movs	r4, #2
 103 0044 2243     		orrs	r2, r4
ARM GAS  C:\Users\tugru\AppData\Local\Temp\ccFbFeub.s 			page 9


 104 0046 5A63     		str	r2, [r3, #52]
 105              		.loc 1 354 3 view .LVU24
 106 0048 5B6B     		ldr	r3, [r3, #52]
 107 004a 2340     		ands	r3, r4
 108 004c 0493     		str	r3, [sp, #16]
 109              		.loc 1 354 3 view .LVU25
 110 004e 049B     		ldr	r3, [sp, #16]
 111              	.LBE7:
 112              		.loc 1 354 3 view .LVU26
 355:Core/Src/main.c **** 
 356:Core/Src/main.c ****   /*Configure GPIO pin Output Level */
 357:Core/Src/main.c ****   HAL_GPIO_WritePin(LED_GREEN_GPIO_Port, LED_GREEN_Pin, GPIO_PIN_RESET);
 113              		.loc 1 357 3 view .LVU27
 114 0050 A027     		movs	r7, #160
 115 0052 FF05     		lsls	r7, r7, #23
 116 0054 0022     		movs	r2, #0
 117 0056 2021     		movs	r1, #32
 118 0058 3800     		movs	r0, r7
 119 005a FFF7FEFF 		bl	HAL_GPIO_WritePin
 120              	.LVL1:
 358:Core/Src/main.c **** 
 359:Core/Src/main.c ****   /*Configure GPIO pin : LED_GREEN_Pin */
 360:Core/Src/main.c ****   GPIO_InitStruct.Pin = LED_GREEN_Pin;
 121              		.loc 1 360 3 view .LVU28
 122              		.loc 1 360 23 is_stmt 0 view .LVU29
 123 005e 0596     		str	r6, [sp, #20]
 361:Core/Src/main.c ****   GPIO_InitStruct.Mode = GPIO_MODE_OUTPUT_PP;
 124              		.loc 1 361 3 is_stmt 1 view .LVU30
 125              		.loc 1 361 24 is_stmt 0 view .LVU31
 126 0060 0695     		str	r5, [sp, #24]
 362:Core/Src/main.c ****   GPIO_InitStruct.Pull = GPIO_NOPULL;
 127              		.loc 1 362 3 is_stmt 1 view .LVU32
 128              		.loc 1 362 24 is_stmt 0 view .LVU33
 129 0062 0023     		movs	r3, #0
 130 0064 0793     		str	r3, [sp, #28]
 363:Core/Src/main.c ****   GPIO_InitStruct.Speed = GPIO_SPEED_FREQ_HIGH;
 131              		.loc 1 363 3 is_stmt 1 view .LVU34
 132              		.loc 1 363 25 is_stmt 0 view .LVU35
 133 0066 0894     		str	r4, [sp, #32]
 364:Core/Src/main.c ****   HAL_GPIO_Init(LED_GREEN_GPIO_Port, &GPIO_InitStruct);
 134              		.loc 1 364 3 is_stmt 1 view .LVU36
 135 0068 05A9     		add	r1, sp, #20
 136 006a 3800     		movs	r0, r7
 137 006c FFF7FEFF 		bl	HAL_GPIO_Init
 138              	.LVL2:
 365:Core/Src/main.c **** 
 366:Core/Src/main.c **** /* USER CODE BEGIN MX_GPIO_Init_2 */
 367:Core/Src/main.c **** /* USER CODE END MX_GPIO_Init_2 */
 368:Core/Src/main.c **** }
 139              		.loc 1 368 1 is_stmt 0 view .LVU37
 140 0070 0BB0     		add	sp, sp, #44
 141              		@ sp needed
 142 0072 F0BD     		pop	{r4, r5, r6, r7, pc}
 143              	.L3:
 144              		.align	2
 145              	.L2:
 146 0074 00100240 		.word	1073876992
ARM GAS  C:\Users\tugru\AppData\Local\Temp\ccFbFeub.s 			page 10


 147              		.cfi_endproc
 148              	.LFE450:
 150              		.section	.text.MX_DMA_Init,"ax",%progbits
 151              		.align	1
 152              		.syntax unified
 153              		.code	16
 154              		.thumb_func
 156              	MX_DMA_Init:
 157              	.LFB449:
 327:Core/Src/main.c **** 
 158              		.loc 1 327 1 is_stmt 1 view -0
 159              		.cfi_startproc
 160              		@ args = 0, pretend = 0, frame = 8
 161              		@ frame_needed = 0, uses_anonymous_args = 0
 162 0000 00B5     		push	{lr}
 163              	.LCFI2:
 164              		.cfi_def_cfa_offset 4
 165              		.cfi_offset 14, -4
 166 0002 83B0     		sub	sp, sp, #12
 167              	.LCFI3:
 168              		.cfi_def_cfa_offset 16
 330:Core/Src/main.c **** 
 169              		.loc 1 330 3 view .LVU39
 170              	.LBB8:
 330:Core/Src/main.c **** 
 171              		.loc 1 330 3 view .LVU40
 330:Core/Src/main.c **** 
 172              		.loc 1 330 3 view .LVU41
 173 0004 094A     		ldr	r2, .L5
 174 0006 916B     		ldr	r1, [r2, #56]
 175 0008 0123     		movs	r3, #1
 176 000a 1943     		orrs	r1, r3
 177 000c 9163     		str	r1, [r2, #56]
 330:Core/Src/main.c **** 
 178              		.loc 1 330 3 view .LVU42
 179 000e 926B     		ldr	r2, [r2, #56]
 180 0010 1340     		ands	r3, r2
 181 0012 0193     		str	r3, [sp, #4]
 330:Core/Src/main.c **** 
 182              		.loc 1 330 3 view .LVU43
 183 0014 019B     		ldr	r3, [sp, #4]
 184              	.LBE8:
 330:Core/Src/main.c **** 
 185              		.loc 1 330 3 view .LVU44
 334:Core/Src/main.c ****   HAL_NVIC_EnableIRQ(DMA1_Channel1_IRQn);
 186              		.loc 1 334 3 view .LVU45
 187 0016 0022     		movs	r2, #0
 188 0018 0021     		movs	r1, #0
 189 001a 0920     		movs	r0, #9
 190 001c FFF7FEFF 		bl	HAL_NVIC_SetPriority
 191              	.LVL3:
 335:Core/Src/main.c **** 
 192              		.loc 1 335 3 view .LVU46
 193 0020 0920     		movs	r0, #9
 194 0022 FFF7FEFF 		bl	HAL_NVIC_EnableIRQ
 195              	.LVL4:
 337:Core/Src/main.c **** 
ARM GAS  C:\Users\tugru\AppData\Local\Temp\ccFbFeub.s 			page 11


 196              		.loc 1 337 1 is_stmt 0 view .LVU47
 197 0026 03B0     		add	sp, sp, #12
 198              		@ sp needed
 199 0028 00BD     		pop	{pc}
 200              	.L6:
 201 002a C046     		.align	2
 202              	.L5:
 203 002c 00100240 		.word	1073876992
 204              		.cfi_endproc
 205              	.LFE449:
 207              		.section	.text.HAL_ADC_ConvCpltCallback,"ax",%progbits
 208              		.align	1
 209              		.global	HAL_ADC_ConvCpltCallback
 210              		.syntax unified
 211              		.code	16
 212              		.thumb_func
 214              	HAL_ADC_ConvCpltCallback:
 215              	.LVL5:
 216              	.LFB443:
  74:Core/Src/main.c ****   convCompleted=1;
 217              		.loc 1 74 1 is_stmt 1 view -0
 218              		.cfi_startproc
 219              		@ args = 0, pretend = 0, frame = 0
 220              		@ frame_needed = 0, uses_anonymous_args = 0
 221              		@ link register save eliminated.
  75:Core/Src/main.c **** 
 222              		.loc 1 75 3 view .LVU49
  75:Core/Src/main.c **** 
 223              		.loc 1 75 16 is_stmt 0 view .LVU50
 224 0000 014B     		ldr	r3, .L8
 225 0002 0122     		movs	r2, #1
 226 0004 1A70     		strb	r2, [r3]
  77:Core/Src/main.c **** /* USER CODE END 0 */
 227              		.loc 1 77 1 view .LVU51
 228              		@ sp needed
 229 0006 7047     		bx	lr
 230              	.L9:
 231              		.align	2
 232              	.L8:
 233 0008 00000000 		.word	.LANCHOR0
 234              		.cfi_endproc
 235              	.LFE443:
 237              		.section	.text.Error_Handler,"ax",%progbits
 238              		.align	1
 239              		.global	Error_Handler
 240              		.syntax unified
 241              		.code	16
 242              		.thumb_func
 244              	Error_Handler:
 245              	.LFB451:
 369:Core/Src/main.c **** 
 370:Core/Src/main.c **** /* USER CODE BEGIN 4 */
 371:Core/Src/main.c **** 
 372:Core/Src/main.c **** /* USER CODE END 4 */
 373:Core/Src/main.c **** 
 374:Core/Src/main.c **** /**
 375:Core/Src/main.c ****   * @brief  This function is executed in case of error occurrence.
ARM GAS  C:\Users\tugru\AppData\Local\Temp\ccFbFeub.s 			page 12


 376:Core/Src/main.c ****   * @retval None
 377:Core/Src/main.c ****   */
 378:Core/Src/main.c **** void Error_Handler(void)
 379:Core/Src/main.c **** {
 246              		.loc 1 379 1 is_stmt 1 view -0
 247              		.cfi_startproc
 248              		@ Volatile: function does not return.
 249              		@ args = 0, pretend = 0, frame = 0
 250              		@ frame_needed = 0, uses_anonymous_args = 0
 251              		@ link register save eliminated.
 380:Core/Src/main.c ****   /* USER CODE BEGIN Error_Handler_Debug */
 381:Core/Src/main.c ****   /* User can add his own implementation to report the HAL error return state */
 382:Core/Src/main.c ****   __disable_irq();
 252              		.loc 1 382 3 view .LVU53
 253              	.LBB9:
 254              	.LBI9:
 255              		.file 2 "Drivers/CMSIS/Include/cmsis_gcc.h"
   1:Drivers/CMSIS/Include/cmsis_gcc.h **** /**************************************************************************//**
   2:Drivers/CMSIS/Include/cmsis_gcc.h ****  * @file     cmsis_gcc.h
   3:Drivers/CMSIS/Include/cmsis_gcc.h ****  * @brief    CMSIS compiler GCC header file
   4:Drivers/CMSIS/Include/cmsis_gcc.h ****  * @version  V5.2.0
   5:Drivers/CMSIS/Include/cmsis_gcc.h ****  * @date     08. May 2019
   6:Drivers/CMSIS/Include/cmsis_gcc.h ****  ******************************************************************************/
   7:Drivers/CMSIS/Include/cmsis_gcc.h **** /*
   8:Drivers/CMSIS/Include/cmsis_gcc.h ****  * Copyright (c) 2009-2019 Arm Limited. All rights reserved.
   9:Drivers/CMSIS/Include/cmsis_gcc.h ****  *
  10:Drivers/CMSIS/Include/cmsis_gcc.h ****  * SPDX-License-Identifier: Apache-2.0
  11:Drivers/CMSIS/Include/cmsis_gcc.h ****  *
  12:Drivers/CMSIS/Include/cmsis_gcc.h ****  * Licensed under the Apache License, Version 2.0 (the License); you may
  13:Drivers/CMSIS/Include/cmsis_gcc.h ****  * not use this file except in compliance with the License.
  14:Drivers/CMSIS/Include/cmsis_gcc.h ****  * You may obtain a copy of the License at
  15:Drivers/CMSIS/Include/cmsis_gcc.h ****  *
  16:Drivers/CMSIS/Include/cmsis_gcc.h ****  * www.apache.org/licenses/LICENSE-2.0
  17:Drivers/CMSIS/Include/cmsis_gcc.h ****  *
  18:Drivers/CMSIS/Include/cmsis_gcc.h ****  * Unless required by applicable law or agreed to in writing, software
  19:Drivers/CMSIS/Include/cmsis_gcc.h ****  * distributed under the License is distributed on an AS IS BASIS, WITHOUT
  20:Drivers/CMSIS/Include/cmsis_gcc.h ****  * WARRANTIES OR CONDITIONS OF ANY KIND, either express or implied.
  21:Drivers/CMSIS/Include/cmsis_gcc.h ****  * See the License for the specific language governing permissions and
  22:Drivers/CMSIS/Include/cmsis_gcc.h ****  * limitations under the License.
  23:Drivers/CMSIS/Include/cmsis_gcc.h ****  */
  24:Drivers/CMSIS/Include/cmsis_gcc.h **** 
  25:Drivers/CMSIS/Include/cmsis_gcc.h **** #ifndef __CMSIS_GCC_H
  26:Drivers/CMSIS/Include/cmsis_gcc.h **** #define __CMSIS_GCC_H
  27:Drivers/CMSIS/Include/cmsis_gcc.h **** 
  28:Drivers/CMSIS/Include/cmsis_gcc.h **** /* ignore some GCC warnings */
  29:Drivers/CMSIS/Include/cmsis_gcc.h **** #pragma GCC diagnostic push
  30:Drivers/CMSIS/Include/cmsis_gcc.h **** #pragma GCC diagnostic ignored "-Wsign-conversion"
  31:Drivers/CMSIS/Include/cmsis_gcc.h **** #pragma GCC diagnostic ignored "-Wconversion"
  32:Drivers/CMSIS/Include/cmsis_gcc.h **** #pragma GCC diagnostic ignored "-Wunused-parameter"
  33:Drivers/CMSIS/Include/cmsis_gcc.h **** 
  34:Drivers/CMSIS/Include/cmsis_gcc.h **** /* Fallback for __has_builtin */
  35:Drivers/CMSIS/Include/cmsis_gcc.h **** #ifndef __has_builtin
  36:Drivers/CMSIS/Include/cmsis_gcc.h ****   #define __has_builtin(x) (0)
  37:Drivers/CMSIS/Include/cmsis_gcc.h **** #endif
  38:Drivers/CMSIS/Include/cmsis_gcc.h **** 
  39:Drivers/CMSIS/Include/cmsis_gcc.h **** /* CMSIS compiler specific defines */
  40:Drivers/CMSIS/Include/cmsis_gcc.h **** #ifndef   __ASM
ARM GAS  C:\Users\tugru\AppData\Local\Temp\ccFbFeub.s 			page 13


  41:Drivers/CMSIS/Include/cmsis_gcc.h ****   #define __ASM                                  __asm
  42:Drivers/CMSIS/Include/cmsis_gcc.h **** #endif
  43:Drivers/CMSIS/Include/cmsis_gcc.h **** #ifndef   __INLINE
  44:Drivers/CMSIS/Include/cmsis_gcc.h ****   #define __INLINE                               inline
  45:Drivers/CMSIS/Include/cmsis_gcc.h **** #endif
  46:Drivers/CMSIS/Include/cmsis_gcc.h **** #ifndef   __STATIC_INLINE
  47:Drivers/CMSIS/Include/cmsis_gcc.h ****   #define __STATIC_INLINE                        static inline
  48:Drivers/CMSIS/Include/cmsis_gcc.h **** #endif
  49:Drivers/CMSIS/Include/cmsis_gcc.h **** #ifndef   __STATIC_FORCEINLINE                 
  50:Drivers/CMSIS/Include/cmsis_gcc.h ****   #define __STATIC_FORCEINLINE                   __attribute__((always_inline)) static inline
  51:Drivers/CMSIS/Include/cmsis_gcc.h **** #endif                                           
  52:Drivers/CMSIS/Include/cmsis_gcc.h **** #ifndef   __NO_RETURN
  53:Drivers/CMSIS/Include/cmsis_gcc.h ****   #define __NO_RETURN                            __attribute__((__noreturn__))
  54:Drivers/CMSIS/Include/cmsis_gcc.h **** #endif
  55:Drivers/CMSIS/Include/cmsis_gcc.h **** #ifndef   __USED
  56:Drivers/CMSIS/Include/cmsis_gcc.h ****   #define __USED                                 __attribute__((used))
  57:Drivers/CMSIS/Include/cmsis_gcc.h **** #endif
  58:Drivers/CMSIS/Include/cmsis_gcc.h **** #ifndef   __WEAK
  59:Drivers/CMSIS/Include/cmsis_gcc.h ****   #define __WEAK                                 __attribute__((weak))
  60:Drivers/CMSIS/Include/cmsis_gcc.h **** #endif
  61:Drivers/CMSIS/Include/cmsis_gcc.h **** #ifndef   __PACKED
  62:Drivers/CMSIS/Include/cmsis_gcc.h ****   #define __PACKED                               __attribute__((packed, aligned(1)))
  63:Drivers/CMSIS/Include/cmsis_gcc.h **** #endif
  64:Drivers/CMSIS/Include/cmsis_gcc.h **** #ifndef   __PACKED_STRUCT
  65:Drivers/CMSIS/Include/cmsis_gcc.h ****   #define __PACKED_STRUCT                        struct __attribute__((packed, aligned(1)))
  66:Drivers/CMSIS/Include/cmsis_gcc.h **** #endif
  67:Drivers/CMSIS/Include/cmsis_gcc.h **** #ifndef   __PACKED_UNION
  68:Drivers/CMSIS/Include/cmsis_gcc.h ****   #define __PACKED_UNION                         union __attribute__((packed, aligned(1)))
  69:Drivers/CMSIS/Include/cmsis_gcc.h **** #endif
  70:Drivers/CMSIS/Include/cmsis_gcc.h **** #ifndef   __UNALIGNED_UINT32        /* deprecated */
  71:Drivers/CMSIS/Include/cmsis_gcc.h ****   #pragma GCC diagnostic push
  72:Drivers/CMSIS/Include/cmsis_gcc.h ****   #pragma GCC diagnostic ignored "-Wpacked"
  73:Drivers/CMSIS/Include/cmsis_gcc.h ****   #pragma GCC diagnostic ignored "-Wattributes"
  74:Drivers/CMSIS/Include/cmsis_gcc.h ****   struct __attribute__((packed)) T_UINT32 { uint32_t v; };
  75:Drivers/CMSIS/Include/cmsis_gcc.h ****   #pragma GCC diagnostic pop
  76:Drivers/CMSIS/Include/cmsis_gcc.h ****   #define __UNALIGNED_UINT32(x)                  (((struct T_UINT32 *)(x))->v)
  77:Drivers/CMSIS/Include/cmsis_gcc.h **** #endif
  78:Drivers/CMSIS/Include/cmsis_gcc.h **** #ifndef   __UNALIGNED_UINT16_WRITE
  79:Drivers/CMSIS/Include/cmsis_gcc.h ****   #pragma GCC diagnostic push
  80:Drivers/CMSIS/Include/cmsis_gcc.h ****   #pragma GCC diagnostic ignored "-Wpacked"
  81:Drivers/CMSIS/Include/cmsis_gcc.h ****   #pragma GCC diagnostic ignored "-Wattributes"
  82:Drivers/CMSIS/Include/cmsis_gcc.h ****   __PACKED_STRUCT T_UINT16_WRITE { uint16_t v; };
  83:Drivers/CMSIS/Include/cmsis_gcc.h ****   #pragma GCC diagnostic pop
  84:Drivers/CMSIS/Include/cmsis_gcc.h ****   #define __UNALIGNED_UINT16_WRITE(addr, val)    (void)((((struct T_UINT16_WRITE *)(void *)(addr))-
  85:Drivers/CMSIS/Include/cmsis_gcc.h **** #endif
  86:Drivers/CMSIS/Include/cmsis_gcc.h **** #ifndef   __UNALIGNED_UINT16_READ
  87:Drivers/CMSIS/Include/cmsis_gcc.h ****   #pragma GCC diagnostic push
  88:Drivers/CMSIS/Include/cmsis_gcc.h ****   #pragma GCC diagnostic ignored "-Wpacked"
  89:Drivers/CMSIS/Include/cmsis_gcc.h ****   #pragma GCC diagnostic ignored "-Wattributes"
  90:Drivers/CMSIS/Include/cmsis_gcc.h ****   __PACKED_STRUCT T_UINT16_READ { uint16_t v; };
  91:Drivers/CMSIS/Include/cmsis_gcc.h ****   #pragma GCC diagnostic pop
  92:Drivers/CMSIS/Include/cmsis_gcc.h ****   #define __UNALIGNED_UINT16_READ(addr)          (((const struct T_UINT16_READ *)(const void *)(add
  93:Drivers/CMSIS/Include/cmsis_gcc.h **** #endif
  94:Drivers/CMSIS/Include/cmsis_gcc.h **** #ifndef   __UNALIGNED_UINT32_WRITE
  95:Drivers/CMSIS/Include/cmsis_gcc.h ****   #pragma GCC diagnostic push
  96:Drivers/CMSIS/Include/cmsis_gcc.h ****   #pragma GCC diagnostic ignored "-Wpacked"
  97:Drivers/CMSIS/Include/cmsis_gcc.h ****   #pragma GCC diagnostic ignored "-Wattributes"
ARM GAS  C:\Users\tugru\AppData\Local\Temp\ccFbFeub.s 			page 14


  98:Drivers/CMSIS/Include/cmsis_gcc.h ****   __PACKED_STRUCT T_UINT32_WRITE { uint32_t v; };
  99:Drivers/CMSIS/Include/cmsis_gcc.h ****   #pragma GCC diagnostic pop
 100:Drivers/CMSIS/Include/cmsis_gcc.h ****   #define __UNALIGNED_UINT32_WRITE(addr, val)    (void)((((struct T_UINT32_WRITE *)(void *)(addr))-
 101:Drivers/CMSIS/Include/cmsis_gcc.h **** #endif
 102:Drivers/CMSIS/Include/cmsis_gcc.h **** #ifndef   __UNALIGNED_UINT32_READ
 103:Drivers/CMSIS/Include/cmsis_gcc.h ****   #pragma GCC diagnostic push
 104:Drivers/CMSIS/Include/cmsis_gcc.h ****   #pragma GCC diagnostic ignored "-Wpacked"
 105:Drivers/CMSIS/Include/cmsis_gcc.h ****   #pragma GCC diagnostic ignored "-Wattributes"
 106:Drivers/CMSIS/Include/cmsis_gcc.h ****   __PACKED_STRUCT T_UINT32_READ { uint32_t v; };
 107:Drivers/CMSIS/Include/cmsis_gcc.h ****   #pragma GCC diagnostic pop
 108:Drivers/CMSIS/Include/cmsis_gcc.h ****   #define __UNALIGNED_UINT32_READ(addr)          (((const struct T_UINT32_READ *)(const void *)(add
 109:Drivers/CMSIS/Include/cmsis_gcc.h **** #endif
 110:Drivers/CMSIS/Include/cmsis_gcc.h **** #ifndef   __ALIGNED
 111:Drivers/CMSIS/Include/cmsis_gcc.h ****   #define __ALIGNED(x)                           __attribute__((aligned(x)))
 112:Drivers/CMSIS/Include/cmsis_gcc.h **** #endif
 113:Drivers/CMSIS/Include/cmsis_gcc.h **** #ifndef   __RESTRICT
 114:Drivers/CMSIS/Include/cmsis_gcc.h ****   #define __RESTRICT                             __restrict
 115:Drivers/CMSIS/Include/cmsis_gcc.h **** #endif
 116:Drivers/CMSIS/Include/cmsis_gcc.h **** #ifndef   __COMPILER_BARRIER
 117:Drivers/CMSIS/Include/cmsis_gcc.h ****   #define __COMPILER_BARRIER()                   __ASM volatile("":::"memory")
 118:Drivers/CMSIS/Include/cmsis_gcc.h **** #endif
 119:Drivers/CMSIS/Include/cmsis_gcc.h **** 
 120:Drivers/CMSIS/Include/cmsis_gcc.h **** /* #########################  Startup and Lowlevel Init  ######################## */
 121:Drivers/CMSIS/Include/cmsis_gcc.h **** 
 122:Drivers/CMSIS/Include/cmsis_gcc.h **** #ifndef __PROGRAM_START
 123:Drivers/CMSIS/Include/cmsis_gcc.h **** 
 124:Drivers/CMSIS/Include/cmsis_gcc.h **** /**
 125:Drivers/CMSIS/Include/cmsis_gcc.h ****   \brief   Initializes data and bss sections
 126:Drivers/CMSIS/Include/cmsis_gcc.h ****   \details This default implementations initialized all data and additional bss
 127:Drivers/CMSIS/Include/cmsis_gcc.h ****            sections relying on .copy.table and .zero.table specified properly
 128:Drivers/CMSIS/Include/cmsis_gcc.h ****            in the used linker script.
 129:Drivers/CMSIS/Include/cmsis_gcc.h ****   
 130:Drivers/CMSIS/Include/cmsis_gcc.h ****  */
 131:Drivers/CMSIS/Include/cmsis_gcc.h **** __STATIC_FORCEINLINE __NO_RETURN void __cmsis_start(void)
 132:Drivers/CMSIS/Include/cmsis_gcc.h **** {
 133:Drivers/CMSIS/Include/cmsis_gcc.h ****   extern void _start(void) __NO_RETURN;
 134:Drivers/CMSIS/Include/cmsis_gcc.h ****   
 135:Drivers/CMSIS/Include/cmsis_gcc.h ****   typedef struct {
 136:Drivers/CMSIS/Include/cmsis_gcc.h ****     uint32_t const* src;
 137:Drivers/CMSIS/Include/cmsis_gcc.h ****     uint32_t* dest;
 138:Drivers/CMSIS/Include/cmsis_gcc.h ****     uint32_t  wlen;
 139:Drivers/CMSIS/Include/cmsis_gcc.h ****   } __copy_table_t;
 140:Drivers/CMSIS/Include/cmsis_gcc.h ****   
 141:Drivers/CMSIS/Include/cmsis_gcc.h ****   typedef struct {
 142:Drivers/CMSIS/Include/cmsis_gcc.h ****     uint32_t* dest;
 143:Drivers/CMSIS/Include/cmsis_gcc.h ****     uint32_t  wlen;
 144:Drivers/CMSIS/Include/cmsis_gcc.h ****   } __zero_table_t;
 145:Drivers/CMSIS/Include/cmsis_gcc.h ****   
 146:Drivers/CMSIS/Include/cmsis_gcc.h ****   extern const __copy_table_t __copy_table_start__;
 147:Drivers/CMSIS/Include/cmsis_gcc.h ****   extern const __copy_table_t __copy_table_end__;
 148:Drivers/CMSIS/Include/cmsis_gcc.h ****   extern const __zero_table_t __zero_table_start__;
 149:Drivers/CMSIS/Include/cmsis_gcc.h ****   extern const __zero_table_t __zero_table_end__;
 150:Drivers/CMSIS/Include/cmsis_gcc.h **** 
 151:Drivers/CMSIS/Include/cmsis_gcc.h ****   for (__copy_table_t const* pTable = &__copy_table_start__; pTable < &__copy_table_end__; ++pTable
 152:Drivers/CMSIS/Include/cmsis_gcc.h ****     for(uint32_t i=0u; i<pTable->wlen; ++i) {
 153:Drivers/CMSIS/Include/cmsis_gcc.h ****       pTable->dest[i] = pTable->src[i];
 154:Drivers/CMSIS/Include/cmsis_gcc.h ****     }
ARM GAS  C:\Users\tugru\AppData\Local\Temp\ccFbFeub.s 			page 15


 155:Drivers/CMSIS/Include/cmsis_gcc.h ****   }
 156:Drivers/CMSIS/Include/cmsis_gcc.h ****  
 157:Drivers/CMSIS/Include/cmsis_gcc.h ****   for (__zero_table_t const* pTable = &__zero_table_start__; pTable < &__zero_table_end__; ++pTable
 158:Drivers/CMSIS/Include/cmsis_gcc.h ****     for(uint32_t i=0u; i<pTable->wlen; ++i) {
 159:Drivers/CMSIS/Include/cmsis_gcc.h ****       pTable->dest[i] = 0u;
 160:Drivers/CMSIS/Include/cmsis_gcc.h ****     }
 161:Drivers/CMSIS/Include/cmsis_gcc.h ****   }
 162:Drivers/CMSIS/Include/cmsis_gcc.h ****  
 163:Drivers/CMSIS/Include/cmsis_gcc.h ****   _start();
 164:Drivers/CMSIS/Include/cmsis_gcc.h **** }
 165:Drivers/CMSIS/Include/cmsis_gcc.h ****   
 166:Drivers/CMSIS/Include/cmsis_gcc.h **** #define __PROGRAM_START           __cmsis_start
 167:Drivers/CMSIS/Include/cmsis_gcc.h **** #endif
 168:Drivers/CMSIS/Include/cmsis_gcc.h **** 
 169:Drivers/CMSIS/Include/cmsis_gcc.h **** #ifndef __INITIAL_SP
 170:Drivers/CMSIS/Include/cmsis_gcc.h **** #define __INITIAL_SP              __StackTop
 171:Drivers/CMSIS/Include/cmsis_gcc.h **** #endif
 172:Drivers/CMSIS/Include/cmsis_gcc.h **** 
 173:Drivers/CMSIS/Include/cmsis_gcc.h **** #ifndef __STACK_LIMIT
 174:Drivers/CMSIS/Include/cmsis_gcc.h **** #define __STACK_LIMIT             __StackLimit
 175:Drivers/CMSIS/Include/cmsis_gcc.h **** #endif
 176:Drivers/CMSIS/Include/cmsis_gcc.h **** 
 177:Drivers/CMSIS/Include/cmsis_gcc.h **** #ifndef __VECTOR_TABLE
 178:Drivers/CMSIS/Include/cmsis_gcc.h **** #define __VECTOR_TABLE            __Vectors
 179:Drivers/CMSIS/Include/cmsis_gcc.h **** #endif
 180:Drivers/CMSIS/Include/cmsis_gcc.h **** 
 181:Drivers/CMSIS/Include/cmsis_gcc.h **** #ifndef __VECTOR_TABLE_ATTRIBUTE
 182:Drivers/CMSIS/Include/cmsis_gcc.h **** #define __VECTOR_TABLE_ATTRIBUTE  __attribute((used, section(".vectors")))
 183:Drivers/CMSIS/Include/cmsis_gcc.h **** #endif
 184:Drivers/CMSIS/Include/cmsis_gcc.h **** 
 185:Drivers/CMSIS/Include/cmsis_gcc.h **** /* ###########################  Core Function Access  ########################### */
 186:Drivers/CMSIS/Include/cmsis_gcc.h **** /** \ingroup  CMSIS_Core_FunctionInterface
 187:Drivers/CMSIS/Include/cmsis_gcc.h ****     \defgroup CMSIS_Core_RegAccFunctions CMSIS Core Register Access Functions
 188:Drivers/CMSIS/Include/cmsis_gcc.h ****   @{
 189:Drivers/CMSIS/Include/cmsis_gcc.h ****  */
 190:Drivers/CMSIS/Include/cmsis_gcc.h **** 
 191:Drivers/CMSIS/Include/cmsis_gcc.h **** /**
 192:Drivers/CMSIS/Include/cmsis_gcc.h ****   \brief   Enable IRQ Interrupts
 193:Drivers/CMSIS/Include/cmsis_gcc.h ****   \details Enables IRQ interrupts by clearing the I-bit in the CPSR.
 194:Drivers/CMSIS/Include/cmsis_gcc.h ****            Can only be executed in Privileged modes.
 195:Drivers/CMSIS/Include/cmsis_gcc.h ****  */
 196:Drivers/CMSIS/Include/cmsis_gcc.h **** __STATIC_FORCEINLINE void __enable_irq(void)
 197:Drivers/CMSIS/Include/cmsis_gcc.h **** {
 198:Drivers/CMSIS/Include/cmsis_gcc.h ****   __ASM volatile ("cpsie i" : : : "memory");
 199:Drivers/CMSIS/Include/cmsis_gcc.h **** }
 200:Drivers/CMSIS/Include/cmsis_gcc.h **** 
 201:Drivers/CMSIS/Include/cmsis_gcc.h **** 
 202:Drivers/CMSIS/Include/cmsis_gcc.h **** /**
 203:Drivers/CMSIS/Include/cmsis_gcc.h ****   \brief   Disable IRQ Interrupts
 204:Drivers/CMSIS/Include/cmsis_gcc.h ****   \details Disables IRQ interrupts by setting the I-bit in the CPSR.
 205:Drivers/CMSIS/Include/cmsis_gcc.h ****            Can only be executed in Privileged modes.
 206:Drivers/CMSIS/Include/cmsis_gcc.h ****  */
 207:Drivers/CMSIS/Include/cmsis_gcc.h **** __STATIC_FORCEINLINE void __disable_irq(void)
 256              		.loc 2 207 27 view .LVU54
 257              	.LBB10:
 208:Drivers/CMSIS/Include/cmsis_gcc.h **** {
 209:Drivers/CMSIS/Include/cmsis_gcc.h ****   __ASM volatile ("cpsid i" : : : "memory");
ARM GAS  C:\Users\tugru\AppData\Local\Temp\ccFbFeub.s 			page 16


 258              		.loc 2 209 3 view .LVU55
 259              		.syntax divided
 260              	@ 209 "Drivers/CMSIS/Include/cmsis_gcc.h" 1
 261 0000 72B6     		cpsid i
 262              	@ 0 "" 2
 263              		.thumb
 264              		.syntax unified
 265              	.L11:
 266              	.LBE10:
 267              	.LBE9:
 383:Core/Src/main.c ****   while (1)
 268              		.loc 1 383 3 discriminator 1 view .LVU56
 384:Core/Src/main.c ****   {
 385:Core/Src/main.c ****   }
 269              		.loc 1 385 3 discriminator 1 view .LVU57
 383:Core/Src/main.c ****   while (1)
 270              		.loc 1 383 9 discriminator 1 view .LVU58
 271 0002 FEE7     		b	.L11
 272              		.cfi_endproc
 273              	.LFE451:
 275              		.section	.text.MX_ADC1_Init,"ax",%progbits
 276              		.align	1
 277              		.syntax unified
 278              		.code	16
 279              		.thumb_func
 281              	MX_ADC1_Init:
 282              	.LFB446:
 183:Core/Src/main.c **** 
 283              		.loc 1 183 1 view -0
 284              		.cfi_startproc
 285              		@ args = 0, pretend = 0, frame = 16
 286              		@ frame_needed = 0, uses_anonymous_args = 0
 287 0000 00B5     		push	{lr}
 288              	.LCFI4:
 289              		.cfi_def_cfa_offset 4
 290              		.cfi_offset 14, -4
 291 0002 85B0     		sub	sp, sp, #20
 292              	.LCFI5:
 293              		.cfi_def_cfa_offset 24
 189:Core/Src/main.c **** 
 294              		.loc 1 189 3 view .LVU60
 189:Core/Src/main.c **** 
 295              		.loc 1 189 26 is_stmt 0 view .LVU61
 296 0004 0C22     		movs	r2, #12
 297 0006 0021     		movs	r1, #0
 298 0008 01A8     		add	r0, sp, #4
 299 000a FFF7FEFF 		bl	memset
 300              	.LVL6:
 197:Core/Src/main.c ****   hadc1.Init.ClockPrescaler = ADC_CLOCK_ASYNC_DIV2;
 301              		.loc 1 197 3 is_stmt 1 view .LVU62
 197:Core/Src/main.c ****   hadc1.Init.ClockPrescaler = ADC_CLOCK_ASYNC_DIV2;
 302              		.loc 1 197 18 is_stmt 0 view .LVU63
 303 000e 1B48     		ldr	r0, .L17
 304 0010 1B4B     		ldr	r3, .L17+4
 305 0012 0360     		str	r3, [r0]
 198:Core/Src/main.c ****   hadc1.Init.Resolution = ADC_RESOLUTION_12B;
 306              		.loc 1 198 3 is_stmt 1 view .LVU64
ARM GAS  C:\Users\tugru\AppData\Local\Temp\ccFbFeub.s 			page 17


 198:Core/Src/main.c ****   hadc1.Init.Resolution = ADC_RESOLUTION_12B;
 307              		.loc 1 198 29 is_stmt 0 view .LVU65
 308 0014 8023     		movs	r3, #128
 309 0016 DB02     		lsls	r3, r3, #11
 310 0018 4360     		str	r3, [r0, #4]
 199:Core/Src/main.c ****   hadc1.Init.DataAlign = ADC_DATAALIGN_RIGHT;
 311              		.loc 1 199 3 is_stmt 1 view .LVU66
 199:Core/Src/main.c ****   hadc1.Init.DataAlign = ADC_DATAALIGN_RIGHT;
 312              		.loc 1 199 25 is_stmt 0 view .LVU67
 313 001a 0023     		movs	r3, #0
 314 001c 8360     		str	r3, [r0, #8]
 200:Core/Src/main.c ****   hadc1.Init.ScanConvMode = ADC_SCAN_ENABLE;
 315              		.loc 1 200 3 is_stmt 1 view .LVU68
 200:Core/Src/main.c ****   hadc1.Init.ScanConvMode = ADC_SCAN_ENABLE;
 316              		.loc 1 200 24 is_stmt 0 view .LVU69
 317 001e C360     		str	r3, [r0, #12]
 201:Core/Src/main.c ****   hadc1.Init.EOCSelection = ADC_EOC_SINGLE_CONV;
 318              		.loc 1 201 3 is_stmt 1 view .LVU70
 201:Core/Src/main.c ****   hadc1.Init.EOCSelection = ADC_EOC_SINGLE_CONV;
 319              		.loc 1 201 27 is_stmt 0 view .LVU71
 320 0020 8022     		movs	r2, #128
 321 0022 9203     		lsls	r2, r2, #14
 322 0024 0261     		str	r2, [r0, #16]
 202:Core/Src/main.c ****   hadc1.Init.LowPowerAutoWait = DISABLE;
 323              		.loc 1 202 3 is_stmt 1 view .LVU72
 202:Core/Src/main.c ****   hadc1.Init.LowPowerAutoWait = DISABLE;
 324              		.loc 1 202 27 is_stmt 0 view .LVU73
 325 0026 0422     		movs	r2, #4
 326 0028 4261     		str	r2, [r0, #20]
 203:Core/Src/main.c ****   hadc1.Init.LowPowerAutoPowerOff = DISABLE;
 327              		.loc 1 203 3 is_stmt 1 view .LVU74
 203:Core/Src/main.c ****   hadc1.Init.LowPowerAutoPowerOff = DISABLE;
 328              		.loc 1 203 31 is_stmt 0 view .LVU75
 329 002a 0376     		strb	r3, [r0, #24]
 204:Core/Src/main.c ****   hadc1.Init.ContinuousConvMode = DISABLE;
 330              		.loc 1 204 3 is_stmt 1 view .LVU76
 204:Core/Src/main.c ****   hadc1.Init.ContinuousConvMode = DISABLE;
 331              		.loc 1 204 35 is_stmt 0 view .LVU77
 332 002c 4376     		strb	r3, [r0, #25]
 205:Core/Src/main.c ****   hadc1.Init.NbrOfConversion = 2;
 333              		.loc 1 205 3 is_stmt 1 view .LVU78
 205:Core/Src/main.c ****   hadc1.Init.NbrOfConversion = 2;
 334              		.loc 1 205 33 is_stmt 0 view .LVU79
 335 002e 8376     		strb	r3, [r0, #26]
 206:Core/Src/main.c ****   hadc1.Init.DiscontinuousConvMode = DISABLE;
 336              		.loc 1 206 3 is_stmt 1 view .LVU80
 206:Core/Src/main.c ****   hadc1.Init.DiscontinuousConvMode = DISABLE;
 337              		.loc 1 206 30 is_stmt 0 view .LVU81
 338 0030 023A     		subs	r2, r2, #2
 339 0032 C261     		str	r2, [r0, #28]
 207:Core/Src/main.c ****   hadc1.Init.ExternalTrigConv = ADC_SOFTWARE_START;
 340              		.loc 1 207 3 is_stmt 1 view .LVU82
 207:Core/Src/main.c ****   hadc1.Init.ExternalTrigConv = ADC_SOFTWARE_START;
 341              		.loc 1 207 36 is_stmt 0 view .LVU83
 342 0034 1E32     		adds	r2, r2, #30
 343 0036 8354     		strb	r3, [r0, r2]
 208:Core/Src/main.c ****   hadc1.Init.ExternalTrigConvEdge = ADC_EXTERNALTRIGCONVEDGE_NONE;
ARM GAS  C:\Users\tugru\AppData\Local\Temp\ccFbFeub.s 			page 18


 344              		.loc 1 208 3 is_stmt 1 view .LVU84
 208:Core/Src/main.c ****   hadc1.Init.ExternalTrigConvEdge = ADC_EXTERNALTRIGCONVEDGE_NONE;
 345              		.loc 1 208 31 is_stmt 0 view .LVU85
 346 0038 4362     		str	r3, [r0, #36]
 209:Core/Src/main.c ****   hadc1.Init.DMAContinuousRequests = DISABLE;
 347              		.loc 1 209 3 is_stmt 1 view .LVU86
 209:Core/Src/main.c ****   hadc1.Init.DMAContinuousRequests = DISABLE;
 348              		.loc 1 209 35 is_stmt 0 view .LVU87
 349 003a 8362     		str	r3, [r0, #40]
 210:Core/Src/main.c ****   hadc1.Init.Overrun = ADC_OVR_DATA_PRESERVED;
 350              		.loc 1 210 3 is_stmt 1 view .LVU88
 210:Core/Src/main.c ****   hadc1.Init.Overrun = ADC_OVR_DATA_PRESERVED;
 351              		.loc 1 210 36 is_stmt 0 view .LVU89
 352 003c 0C32     		adds	r2, r2, #12
 353 003e 8354     		strb	r3, [r0, r2]
 211:Core/Src/main.c ****   hadc1.Init.SamplingTimeCommon1 = ADC_SAMPLETIME_160CYCLES_5;
 354              		.loc 1 211 3 is_stmt 1 view .LVU90
 211:Core/Src/main.c ****   hadc1.Init.SamplingTimeCommon1 = ADC_SAMPLETIME_160CYCLES_5;
 355              		.loc 1 211 22 is_stmt 0 view .LVU91
 356 0040 0363     		str	r3, [r0, #48]
 212:Core/Src/main.c ****   hadc1.Init.SamplingTimeCommon2 = ADC_SAMPLETIME_160CYCLES_5;
 357              		.loc 1 212 3 is_stmt 1 view .LVU92
 212:Core/Src/main.c ****   hadc1.Init.SamplingTimeCommon2 = ADC_SAMPLETIME_160CYCLES_5;
 358              		.loc 1 212 34 is_stmt 0 view .LVU93
 359 0042 253A     		subs	r2, r2, #37
 360 0044 4263     		str	r2, [r0, #52]
 213:Core/Src/main.c ****   hadc1.Init.OversamplingMode = DISABLE;
 361              		.loc 1 213 3 is_stmt 1 view .LVU94
 213:Core/Src/main.c ****   hadc1.Init.OversamplingMode = DISABLE;
 362              		.loc 1 213 34 is_stmt 0 view .LVU95
 363 0046 8263     		str	r2, [r0, #56]
 214:Core/Src/main.c ****   hadc1.Init.TriggerFrequencyMode = ADC_TRIGGER_FREQ_HIGH;
 364              		.loc 1 214 3 is_stmt 1 view .LVU96
 214:Core/Src/main.c ****   hadc1.Init.TriggerFrequencyMode = ADC_TRIGGER_FREQ_HIGH;
 365              		.loc 1 214 31 is_stmt 0 view .LVU97
 366 0048 3532     		adds	r2, r2, #53
 367 004a 8354     		strb	r3, [r0, r2]
 215:Core/Src/main.c ****   if (HAL_ADC_Init(&hadc1) != HAL_OK)
 368              		.loc 1 215 3 is_stmt 1 view .LVU98
 215:Core/Src/main.c ****   if (HAL_ADC_Init(&hadc1) != HAL_OK)
 369              		.loc 1 215 35 is_stmt 0 view .LVU99
 370 004c C364     		str	r3, [r0, #76]
 216:Core/Src/main.c ****   {
 371              		.loc 1 216 3 is_stmt 1 view .LVU100
 216:Core/Src/main.c ****   {
 372              		.loc 1 216 7 is_stmt 0 view .LVU101
 373 004e FFF7FEFF 		bl	HAL_ADC_Init
 374              	.LVL7:
 216:Core/Src/main.c ****   {
 375              		.loc 1 216 6 view .LVU102
 376 0052 0028     		cmp	r0, #0
 377 0054 0DD1     		bne	.L15
 223:Core/Src/main.c ****   sConfig.Rank = ADC_REGULAR_RANK_2;
 378              		.loc 1 223 3 is_stmt 1 view .LVU103
 223:Core/Src/main.c ****   sConfig.Rank = ADC_REGULAR_RANK_2;
 379              		.loc 1 223 19 is_stmt 0 view .LVU104
 380 0056 0123     		movs	r3, #1
ARM GAS  C:\Users\tugru\AppData\Local\Temp\ccFbFeub.s 			page 19


 381 0058 0193     		str	r3, [sp, #4]
 224:Core/Src/main.c ****   sConfig.SamplingTime = ADC_SAMPLINGTIME_COMMON_1;
 382              		.loc 1 224 3 is_stmt 1 view .LVU105
 224:Core/Src/main.c ****   sConfig.SamplingTime = ADC_SAMPLINGTIME_COMMON_1;
 383              		.loc 1 224 16 is_stmt 0 view .LVU106
 384 005a 0333     		adds	r3, r3, #3
 385 005c 0293     		str	r3, [sp, #8]
 225:Core/Src/main.c ****   if (HAL_ADC_ConfigChannel(&hadc1, &sConfig) != HAL_OK)
 386              		.loc 1 225 3 is_stmt 1 view .LVU107
 225:Core/Src/main.c ****   if (HAL_ADC_ConfigChannel(&hadc1, &sConfig) != HAL_OK)
 387              		.loc 1 225 24 is_stmt 0 view .LVU108
 388 005e 0023     		movs	r3, #0
 389 0060 0393     		str	r3, [sp, #12]
 226:Core/Src/main.c ****   {
 390              		.loc 1 226 3 is_stmt 1 view .LVU109
 226:Core/Src/main.c ****   {
 391              		.loc 1 226 7 is_stmt 0 view .LVU110
 392 0062 01A9     		add	r1, sp, #4
 393 0064 0548     		ldr	r0, .L17
 394 0066 FFF7FEFF 		bl	HAL_ADC_ConfigChannel
 395              	.LVL8:
 226:Core/Src/main.c ****   {
 396              		.loc 1 226 6 view .LVU111
 397 006a 0028     		cmp	r0, #0
 398 006c 03D1     		bne	.L16
 234:Core/Src/main.c **** 
 399              		.loc 1 234 1 view .LVU112
 400 006e 05B0     		add	sp, sp, #20
 401              		@ sp needed
 402 0070 00BD     		pop	{pc}
 403              	.L15:
 218:Core/Src/main.c ****   }
 404              		.loc 1 218 5 is_stmt 1 view .LVU113
 405 0072 FFF7FEFF 		bl	Error_Handler
 406              	.LVL9:
 407              	.L16:
 228:Core/Src/main.c ****   }
 408              		.loc 1 228 5 view .LVU114
 409 0076 FFF7FEFF 		bl	Error_Handler
 410              	.LVL10:
 411              	.L18:
 412 007a C046     		.align	2
 413              	.L17:
 414 007c 00000000 		.word	.LANCHOR1
 415 0080 00240140 		.word	1073816576
 416              		.cfi_endproc
 417              	.LFE446:
 419              		.section	.text.MX_SPI2_Init,"ax",%progbits
 420              		.align	1
 421              		.syntax unified
 422              		.code	16
 423              		.thumb_func
 425              	MX_SPI2_Init:
 426              	.LFB447:
 242:Core/Src/main.c **** 
 427              		.loc 1 242 1 view -0
 428              		.cfi_startproc
ARM GAS  C:\Users\tugru\AppData\Local\Temp\ccFbFeub.s 			page 20


 429              		@ args = 0, pretend = 0, frame = 0
 430              		@ frame_needed = 0, uses_anonymous_args = 0
 431 0000 10B5     		push	{r4, lr}
 432              	.LCFI6:
 433              		.cfi_def_cfa_offset 8
 434              		.cfi_offset 4, -8
 435              		.cfi_offset 14, -4
 252:Core/Src/main.c ****   hspi2.Init.Mode = SPI_MODE_SLAVE;
 436              		.loc 1 252 3 view .LVU116
 252:Core/Src/main.c ****   hspi2.Init.Mode = SPI_MODE_SLAVE;
 437              		.loc 1 252 18 is_stmt 0 view .LVU117
 438 0002 0D48     		ldr	r0, .L22
 439 0004 0D4B     		ldr	r3, .L22+4
 440 0006 0360     		str	r3, [r0]
 253:Core/Src/main.c ****   hspi2.Init.Direction = SPI_DIRECTION_2LINES;
 441              		.loc 1 253 3 is_stmt 1 view .LVU118
 253:Core/Src/main.c ****   hspi2.Init.Direction = SPI_DIRECTION_2LINES;
 442              		.loc 1 253 19 is_stmt 0 view .LVU119
 443 0008 0023     		movs	r3, #0
 444 000a 4360     		str	r3, [r0, #4]
 254:Core/Src/main.c ****   hspi2.Init.DataSize = SPI_DATASIZE_8BIT;
 445              		.loc 1 254 3 is_stmt 1 view .LVU120
 254:Core/Src/main.c ****   hspi2.Init.DataSize = SPI_DATASIZE_8BIT;
 446              		.loc 1 254 24 is_stmt 0 view .LVU121
 447 000c 8360     		str	r3, [r0, #8]
 255:Core/Src/main.c ****   hspi2.Init.CLKPolarity = SPI_POLARITY_LOW;
 448              		.loc 1 255 3 is_stmt 1 view .LVU122
 255:Core/Src/main.c ****   hspi2.Init.CLKPolarity = SPI_POLARITY_LOW;
 449              		.loc 1 255 23 is_stmt 0 view .LVU123
 450 000e E022     		movs	r2, #224
 451 0010 D200     		lsls	r2, r2, #3
 452 0012 C260     		str	r2, [r0, #12]
 256:Core/Src/main.c ****   hspi2.Init.CLKPhase = SPI_PHASE_1EDGE;
 453              		.loc 1 256 3 is_stmt 1 view .LVU124
 256:Core/Src/main.c ****   hspi2.Init.CLKPhase = SPI_PHASE_1EDGE;
 454              		.loc 1 256 26 is_stmt 0 view .LVU125
 455 0014 0361     		str	r3, [r0, #16]
 257:Core/Src/main.c ****   hspi2.Init.NSS = SPI_NSS_HARD_INPUT;
 456              		.loc 1 257 3 is_stmt 1 view .LVU126
 257:Core/Src/main.c ****   hspi2.Init.NSS = SPI_NSS_HARD_INPUT;
 457              		.loc 1 257 23 is_stmt 0 view .LVU127
 458 0016 4361     		str	r3, [r0, #20]
 258:Core/Src/main.c ****   hspi2.Init.FirstBit = SPI_FIRSTBIT_MSB;
 459              		.loc 1 258 3 is_stmt 1 view .LVU128
 258:Core/Src/main.c ****   hspi2.Init.FirstBit = SPI_FIRSTBIT_MSB;
 460              		.loc 1 258 18 is_stmt 0 view .LVU129
 461 0018 8361     		str	r3, [r0, #24]
 259:Core/Src/main.c ****   hspi2.Init.TIMode = SPI_TIMODE_DISABLE;
 462              		.loc 1 259 3 is_stmt 1 view .LVU130
 259:Core/Src/main.c ****   hspi2.Init.TIMode = SPI_TIMODE_DISABLE;
 463              		.loc 1 259 23 is_stmt 0 view .LVU131
 464 001a 0362     		str	r3, [r0, #32]
 260:Core/Src/main.c ****   hspi2.Init.CRCCalculation = SPI_CRCCALCULATION_DISABLE;
 465              		.loc 1 260 3 is_stmt 1 view .LVU132
 260:Core/Src/main.c ****   hspi2.Init.CRCCalculation = SPI_CRCCALCULATION_DISABLE;
 466              		.loc 1 260 21 is_stmt 0 view .LVU133
 467 001c 4362     		str	r3, [r0, #36]
ARM GAS  C:\Users\tugru\AppData\Local\Temp\ccFbFeub.s 			page 21


 261:Core/Src/main.c ****   hspi2.Init.CRCPolynomial = 7;
 468              		.loc 1 261 3 is_stmt 1 view .LVU134
 261:Core/Src/main.c ****   hspi2.Init.CRCPolynomial = 7;
 469              		.loc 1 261 29 is_stmt 0 view .LVU135
 470 001e 8362     		str	r3, [r0, #40]
 262:Core/Src/main.c ****   hspi2.Init.CRCLength = SPI_CRC_LENGTH_DATASIZE;
 471              		.loc 1 262 3 is_stmt 1 view .LVU136
 262:Core/Src/main.c ****   hspi2.Init.CRCLength = SPI_CRC_LENGTH_DATASIZE;
 472              		.loc 1 262 28 is_stmt 0 view .LVU137
 473 0020 0722     		movs	r2, #7
 474 0022 C262     		str	r2, [r0, #44]
 263:Core/Src/main.c ****   hspi2.Init.NSSPMode = SPI_NSS_PULSE_DISABLE;
 475              		.loc 1 263 3 is_stmt 1 view .LVU138
 263:Core/Src/main.c ****   hspi2.Init.NSSPMode = SPI_NSS_PULSE_DISABLE;
 476              		.loc 1 263 24 is_stmt 0 view .LVU139
 477 0024 0363     		str	r3, [r0, #48]
 264:Core/Src/main.c ****   if (HAL_SPI_Init(&hspi2) != HAL_OK)
 478              		.loc 1 264 3 is_stmt 1 view .LVU140
 264:Core/Src/main.c ****   if (HAL_SPI_Init(&hspi2) != HAL_OK)
 479              		.loc 1 264 23 is_stmt 0 view .LVU141
 480 0026 4363     		str	r3, [r0, #52]
 265:Core/Src/main.c ****   {
 481              		.loc 1 265 3 is_stmt 1 view .LVU142
 265:Core/Src/main.c ****   {
 482              		.loc 1 265 7 is_stmt 0 view .LVU143
 483 0028 FFF7FEFF 		bl	HAL_SPI_Init
 484              	.LVL11:
 265:Core/Src/main.c ****   {
 485              		.loc 1 265 6 view .LVU144
 486 002c 0028     		cmp	r0, #0
 487 002e 00D1     		bne	.L21
 273:Core/Src/main.c **** 
 488              		.loc 1 273 1 view .LVU145
 489              		@ sp needed
 490 0030 10BD     		pop	{r4, pc}
 491              	.L21:
 267:Core/Src/main.c ****   }
 492              		.loc 1 267 5 is_stmt 1 view .LVU146
 493 0032 FFF7FEFF 		bl	Error_Handler
 494              	.LVL12:
 495              	.L23:
 496 0036 C046     		.align	2
 497              	.L22:
 498 0038 00000000 		.word	.LANCHOR2
 499 003c 00380040 		.word	1073756160
 500              		.cfi_endproc
 501              	.LFE447:
 503              		.section	.text.MX_USART2_UART_Init,"ax",%progbits
 504              		.align	1
 505              		.syntax unified
 506              		.code	16
 507              		.thumb_func
 509              	MX_USART2_UART_Init:
 510              	.LFB448:
 281:Core/Src/main.c **** 
 511              		.loc 1 281 1 view -0
 512              		.cfi_startproc
ARM GAS  C:\Users\tugru\AppData\Local\Temp\ccFbFeub.s 			page 22


 513              		@ args = 0, pretend = 0, frame = 0
 514              		@ frame_needed = 0, uses_anonymous_args = 0
 515 0000 10B5     		push	{r4, lr}
 516              	.LCFI7:
 517              		.cfi_def_cfa_offset 8
 518              		.cfi_offset 4, -8
 519              		.cfi_offset 14, -4
 290:Core/Src/main.c ****   huart2.Init.BaudRate = 115200;
 520              		.loc 1 290 3 view .LVU148
 290:Core/Src/main.c ****   huart2.Init.BaudRate = 115200;
 521              		.loc 1 290 19 is_stmt 0 view .LVU149
 522 0002 1748     		ldr	r0, .L33
 523 0004 174B     		ldr	r3, .L33+4
 524 0006 0360     		str	r3, [r0]
 291:Core/Src/main.c ****   huart2.Init.WordLength = UART_WORDLENGTH_8B;
 525              		.loc 1 291 3 is_stmt 1 view .LVU150
 291:Core/Src/main.c ****   huart2.Init.WordLength = UART_WORDLENGTH_8B;
 526              		.loc 1 291 24 is_stmt 0 view .LVU151
 527 0008 E123     		movs	r3, #225
 528 000a 5B02     		lsls	r3, r3, #9
 529 000c 4360     		str	r3, [r0, #4]
 292:Core/Src/main.c ****   huart2.Init.StopBits = UART_STOPBITS_1;
 530              		.loc 1 292 3 is_stmt 1 view .LVU152
 292:Core/Src/main.c ****   huart2.Init.StopBits = UART_STOPBITS_1;
 531              		.loc 1 292 26 is_stmt 0 view .LVU153
 532 000e 0023     		movs	r3, #0
 533 0010 8360     		str	r3, [r0, #8]
 293:Core/Src/main.c ****   huart2.Init.Parity = UART_PARITY_NONE;
 534              		.loc 1 293 3 is_stmt 1 view .LVU154
 293:Core/Src/main.c ****   huart2.Init.Parity = UART_PARITY_NONE;
 535              		.loc 1 293 24 is_stmt 0 view .LVU155
 536 0012 C360     		str	r3, [r0, #12]
 294:Core/Src/main.c ****   huart2.Init.Mode = UART_MODE_TX_RX;
 537              		.loc 1 294 3 is_stmt 1 view .LVU156
 294:Core/Src/main.c ****   huart2.Init.Mode = UART_MODE_TX_RX;
 538              		.loc 1 294 22 is_stmt 0 view .LVU157
 539 0014 0361     		str	r3, [r0, #16]
 295:Core/Src/main.c ****   huart2.Init.HwFlowCtl = UART_HWCONTROL_NONE;
 540              		.loc 1 295 3 is_stmt 1 view .LVU158
 295:Core/Src/main.c ****   huart2.Init.HwFlowCtl = UART_HWCONTROL_NONE;
 541              		.loc 1 295 20 is_stmt 0 view .LVU159
 542 0016 0C22     		movs	r2, #12
 543 0018 4261     		str	r2, [r0, #20]
 296:Core/Src/main.c ****   huart2.Init.OverSampling = UART_OVERSAMPLING_16;
 544              		.loc 1 296 3 is_stmt 1 view .LVU160
 296:Core/Src/main.c ****   huart2.Init.OverSampling = UART_OVERSAMPLING_16;
 545              		.loc 1 296 25 is_stmt 0 view .LVU161
 546 001a 8361     		str	r3, [r0, #24]
 297:Core/Src/main.c ****   huart2.Init.OneBitSampling = UART_ONE_BIT_SAMPLE_DISABLE;
 547              		.loc 1 297 3 is_stmt 1 view .LVU162
 297:Core/Src/main.c ****   huart2.Init.OneBitSampling = UART_ONE_BIT_SAMPLE_DISABLE;
 548              		.loc 1 297 28 is_stmt 0 view .LVU163
 549 001c C361     		str	r3, [r0, #28]
 298:Core/Src/main.c ****   huart2.Init.ClockPrescaler = UART_PRESCALER_DIV1;
 550              		.loc 1 298 3 is_stmt 1 view .LVU164
 298:Core/Src/main.c ****   huart2.Init.ClockPrescaler = UART_PRESCALER_DIV1;
 551              		.loc 1 298 30 is_stmt 0 view .LVU165
ARM GAS  C:\Users\tugru\AppData\Local\Temp\ccFbFeub.s 			page 23


 552 001e 0362     		str	r3, [r0, #32]
 299:Core/Src/main.c ****   huart2.AdvancedInit.AdvFeatureInit = UART_ADVFEATURE_NO_INIT;
 553              		.loc 1 299 3 is_stmt 1 view .LVU166
 299:Core/Src/main.c ****   huart2.AdvancedInit.AdvFeatureInit = UART_ADVFEATURE_NO_INIT;
 554              		.loc 1 299 30 is_stmt 0 view .LVU167
 555 0020 4362     		str	r3, [r0, #36]
 300:Core/Src/main.c ****   if (HAL_UART_Init(&huart2) != HAL_OK)
 556              		.loc 1 300 3 is_stmt 1 view .LVU168
 300:Core/Src/main.c ****   if (HAL_UART_Init(&huart2) != HAL_OK)
 557              		.loc 1 300 38 is_stmt 0 view .LVU169
 558 0022 8362     		str	r3, [r0, #40]
 301:Core/Src/main.c ****   {
 559              		.loc 1 301 3 is_stmt 1 view .LVU170
 301:Core/Src/main.c ****   {
 560              		.loc 1 301 7 is_stmt 0 view .LVU171
 561 0024 FFF7FEFF 		bl	HAL_UART_Init
 562              	.LVL13:
 301:Core/Src/main.c ****   {
 563              		.loc 1 301 6 view .LVU172
 564 0028 0028     		cmp	r0, #0
 565 002a 11D1     		bne	.L29
 305:Core/Src/main.c ****   {
 566              		.loc 1 305 3 is_stmt 1 view .LVU173
 305:Core/Src/main.c ****   {
 567              		.loc 1 305 7 is_stmt 0 view .LVU174
 568 002c 0021     		movs	r1, #0
 569 002e 0C48     		ldr	r0, .L33
 570 0030 FFF7FEFF 		bl	HAL_UARTEx_SetTxFifoThreshold
 571              	.LVL14:
 305:Core/Src/main.c ****   {
 572              		.loc 1 305 6 view .LVU175
 573 0034 0028     		cmp	r0, #0
 574 0036 0DD1     		bne	.L30
 309:Core/Src/main.c ****   {
 575              		.loc 1 309 3 is_stmt 1 view .LVU176
 309:Core/Src/main.c ****   {
 576              		.loc 1 309 7 is_stmt 0 view .LVU177
 577 0038 0021     		movs	r1, #0
 578 003a 0948     		ldr	r0, .L33
 579 003c FFF7FEFF 		bl	HAL_UARTEx_SetRxFifoThreshold
 580              	.LVL15:
 309:Core/Src/main.c ****   {
 581              		.loc 1 309 6 view .LVU178
 582 0040 0028     		cmp	r0, #0
 583 0042 09D1     		bne	.L31
 313:Core/Src/main.c ****   {
 584              		.loc 1 313 3 is_stmt 1 view .LVU179
 313:Core/Src/main.c ****   {
 585              		.loc 1 313 7 is_stmt 0 view .LVU180
 586 0044 0648     		ldr	r0, .L33
 587 0046 FFF7FEFF 		bl	HAL_UARTEx_DisableFifoMode
 588              	.LVL16:
 313:Core/Src/main.c ****   {
 589              		.loc 1 313 6 view .LVU181
 590 004a 0028     		cmp	r0, #0
 591 004c 06D1     		bne	.L32
 321:Core/Src/main.c **** 
ARM GAS  C:\Users\tugru\AppData\Local\Temp\ccFbFeub.s 			page 24


 592              		.loc 1 321 1 view .LVU182
 593              		@ sp needed
 594 004e 10BD     		pop	{r4, pc}
 595              	.L29:
 303:Core/Src/main.c ****   }
 596              		.loc 1 303 5 is_stmt 1 view .LVU183
 597 0050 FFF7FEFF 		bl	Error_Handler
 598              	.LVL17:
 599              	.L30:
 307:Core/Src/main.c ****   }
 600              		.loc 1 307 5 view .LVU184
 601 0054 FFF7FEFF 		bl	Error_Handler
 602              	.LVL18:
 603              	.L31:
 311:Core/Src/main.c ****   }
 604              		.loc 1 311 5 view .LVU185
 605 0058 FFF7FEFF 		bl	Error_Handler
 606              	.LVL19:
 607              	.L32:
 315:Core/Src/main.c ****   }
 608              		.loc 1 315 5 view .LVU186
 609 005c FFF7FEFF 		bl	Error_Handler
 610              	.LVL20:
 611              	.L34:
 612              		.align	2
 613              	.L33:
 614 0060 00000000 		.word	huart2
 615 0064 00440040 		.word	1073759232
 616              		.cfi_endproc
 617              	.LFE448:
 619              		.section	.text.SystemClock_Config,"ax",%progbits
 620              		.align	1
 621              		.global	SystemClock_Config
 622              		.syntax unified
 623              		.code	16
 624              		.thumb_func
 626              	SystemClock_Config:
 627              	.LFB445:
 142:Core/Src/main.c ****   RCC_OscInitTypeDef RCC_OscInitStruct = {0};
 628              		.loc 1 142 1 view -0
 629              		.cfi_startproc
 630              		@ args = 0, pretend = 0, frame = 72
 631              		@ frame_needed = 0, uses_anonymous_args = 0
 632 0000 00B5     		push	{lr}
 633              	.LCFI8:
 634              		.cfi_def_cfa_offset 4
 635              		.cfi_offset 14, -4
 636 0002 93B0     		sub	sp, sp, #76
 637              	.LCFI9:
 638              		.cfi_def_cfa_offset 80
 143:Core/Src/main.c ****   RCC_ClkInitTypeDef RCC_ClkInitStruct = {0};
 639              		.loc 1 143 3 view .LVU188
 143:Core/Src/main.c ****   RCC_ClkInitTypeDef RCC_ClkInitStruct = {0};
 640              		.loc 1 143 22 is_stmt 0 view .LVU189
 641 0004 3422     		movs	r2, #52
 642 0006 0021     		movs	r1, #0
 643 0008 05A8     		add	r0, sp, #20
ARM GAS  C:\Users\tugru\AppData\Local\Temp\ccFbFeub.s 			page 25


 644 000a FFF7FEFF 		bl	memset
 645              	.LVL21:
 144:Core/Src/main.c **** 
 646              		.loc 1 144 3 is_stmt 1 view .LVU190
 144:Core/Src/main.c **** 
 647              		.loc 1 144 22 is_stmt 0 view .LVU191
 648 000e 1022     		movs	r2, #16
 649 0010 0021     		movs	r1, #0
 650 0012 01A8     		add	r0, sp, #4
 651 0014 FFF7FEFF 		bl	memset
 652              	.LVL22:
 148:Core/Src/main.c **** 
 653              		.loc 1 148 3 is_stmt 1 view .LVU192
 654 0018 8020     		movs	r0, #128
 655 001a 8000     		lsls	r0, r0, #2
 656 001c FFF7FEFF 		bl	HAL_PWREx_ControlVoltageScaling
 657              	.LVL23:
 153:Core/Src/main.c ****   RCC_OscInitStruct.HSIState = RCC_HSI_ON;
 658              		.loc 1 153 3 view .LVU193
 153:Core/Src/main.c ****   RCC_OscInitStruct.HSIState = RCC_HSI_ON;
 659              		.loc 1 153 36 is_stmt 0 view .LVU194
 660 0020 0223     		movs	r3, #2
 661 0022 0593     		str	r3, [sp, #20]
 154:Core/Src/main.c ****   RCC_OscInitStruct.HSIDiv = RCC_HSI_DIV1;
 662              		.loc 1 154 3 is_stmt 1 view .LVU195
 154:Core/Src/main.c ****   RCC_OscInitStruct.HSIDiv = RCC_HSI_DIV1;
 663              		.loc 1 154 30 is_stmt 0 view .LVU196
 664 0024 FE33     		adds	r3, r3, #254
 665 0026 0893     		str	r3, [sp, #32]
 155:Core/Src/main.c ****   RCC_OscInitStruct.HSICalibrationValue = RCC_HSICALIBRATION_DEFAULT;
 666              		.loc 1 155 3 is_stmt 1 view .LVU197
 155:Core/Src/main.c ****   RCC_OscInitStruct.HSICalibrationValue = RCC_HSICALIBRATION_DEFAULT;
 667              		.loc 1 155 28 is_stmt 0 view .LVU198
 668 0028 0023     		movs	r3, #0
 669 002a 0993     		str	r3, [sp, #36]
 156:Core/Src/main.c ****   RCC_OscInitStruct.PLL.PLLState = RCC_PLL_NONE;
 670              		.loc 1 156 3 is_stmt 1 view .LVU199
 156:Core/Src/main.c ****   RCC_OscInitStruct.PLL.PLLState = RCC_PLL_NONE;
 671              		.loc 1 156 41 is_stmt 0 view .LVU200
 672 002c 4022     		movs	r2, #64
 673 002e 0A92     		str	r2, [sp, #40]
 157:Core/Src/main.c ****   if (HAL_RCC_OscConfig(&RCC_OscInitStruct) != HAL_OK)
 674              		.loc 1 157 3 is_stmt 1 view .LVU201
 157:Core/Src/main.c ****   if (HAL_RCC_OscConfig(&RCC_OscInitStruct) != HAL_OK)
 675              		.loc 1 157 34 is_stmt 0 view .LVU202
 676 0030 0C93     		str	r3, [sp, #48]
 158:Core/Src/main.c ****   {
 677              		.loc 1 158 3 is_stmt 1 view .LVU203
 158:Core/Src/main.c ****   {
 678              		.loc 1 158 7 is_stmt 0 view .LVU204
 679 0032 05A8     		add	r0, sp, #20
 680 0034 FFF7FEFF 		bl	HAL_RCC_OscConfig
 681              	.LVL24:
 158:Core/Src/main.c ****   {
 682              		.loc 1 158 6 view .LVU205
 683 0038 0028     		cmp	r0, #0
 684 003a 0DD1     		bne	.L38
ARM GAS  C:\Users\tugru\AppData\Local\Temp\ccFbFeub.s 			page 26


 165:Core/Src/main.c ****                               |RCC_CLOCKTYPE_PCLK1;
 685              		.loc 1 165 3 is_stmt 1 view .LVU206
 165:Core/Src/main.c ****                               |RCC_CLOCKTYPE_PCLK1;
 686              		.loc 1 165 31 is_stmt 0 view .LVU207
 687 003c 0723     		movs	r3, #7
 688 003e 0193     		str	r3, [sp, #4]
 167:Core/Src/main.c ****   RCC_ClkInitStruct.AHBCLKDivider = RCC_SYSCLK_DIV1;
 689              		.loc 1 167 3 is_stmt 1 view .LVU208
 167:Core/Src/main.c ****   RCC_ClkInitStruct.AHBCLKDivider = RCC_SYSCLK_DIV1;
 690              		.loc 1 167 34 is_stmt 0 view .LVU209
 691 0040 0023     		movs	r3, #0
 692 0042 0293     		str	r3, [sp, #8]
 168:Core/Src/main.c ****   RCC_ClkInitStruct.APB1CLKDivider = RCC_HCLK_DIV1;
 693              		.loc 1 168 3 is_stmt 1 view .LVU210
 168:Core/Src/main.c ****   RCC_ClkInitStruct.APB1CLKDivider = RCC_HCLK_DIV1;
 694              		.loc 1 168 35 is_stmt 0 view .LVU211
 695 0044 0393     		str	r3, [sp, #12]
 169:Core/Src/main.c **** 
 696              		.loc 1 169 3 is_stmt 1 view .LVU212
 169:Core/Src/main.c **** 
 697              		.loc 1 169 36 is_stmt 0 view .LVU213
 698 0046 0493     		str	r3, [sp, #16]
 171:Core/Src/main.c ****   {
 699              		.loc 1 171 3 is_stmt 1 view .LVU214
 171:Core/Src/main.c ****   {
 700              		.loc 1 171 7 is_stmt 0 view .LVU215
 701 0048 0021     		movs	r1, #0
 702 004a 01A8     		add	r0, sp, #4
 703 004c FFF7FEFF 		bl	HAL_RCC_ClockConfig
 704              	.LVL25:
 171:Core/Src/main.c ****   {
 705              		.loc 1 171 6 view .LVU216
 706 0050 0028     		cmp	r0, #0
 707 0052 03D1     		bne	.L39
 175:Core/Src/main.c **** 
 708              		.loc 1 175 1 view .LVU217
 709 0054 13B0     		add	sp, sp, #76
 710              		@ sp needed
 711 0056 00BD     		pop	{pc}
 712              	.L38:
 160:Core/Src/main.c ****   }
 713              		.loc 1 160 5 is_stmt 1 view .LVU218
 714 0058 FFF7FEFF 		bl	Error_Handler
 715              	.LVL26:
 716              	.L39:
 173:Core/Src/main.c ****   }
 717              		.loc 1 173 5 view .LVU219
 718 005c FFF7FEFF 		bl	Error_Handler
 719              	.LVL27:
 720              		.cfi_endproc
 721              	.LFE445:
 723              		.section	.rodata.main.str1.4,"aMS",%progbits,1
 724              		.align	2
 725              	.LC9:
 726 0000 41444330 		.ascii	"ADC0: %d\011\011, ADC1: %d\012\015\000"
 726      3A202564 
 726      09092C20 
ARM GAS  C:\Users\tugru\AppData\Local\Temp\ccFbFeub.s 			page 27


 726      41444331 
 726      3A202564 
 727              		.section	.text.main,"ax",%progbits
 728              		.align	1
 729              		.global	main
 730              		.syntax unified
 731              		.code	16
 732              		.thumb_func
 734              	main:
 735              	.LFB444:
  85:Core/Src/main.c **** 
 736              		.loc 1 85 1 view -0
 737              		.cfi_startproc
 738              		@ args = 0, pretend = 0, frame = 0
 739              		@ frame_needed = 0, uses_anonymous_args = 0
 740 0000 10B5     		push	{r4, lr}
 741              	.LCFI10:
 742              		.cfi_def_cfa_offset 8
 743              		.cfi_offset 4, -8
 744              		.cfi_offset 14, -4
  94:Core/Src/main.c **** 
 745              		.loc 1 94 3 view .LVU221
 746 0002 FFF7FEFF 		bl	HAL_Init
 747              	.LVL28:
 101:Core/Src/main.c **** 
 748              		.loc 1 101 3 view .LVU222
 749 0006 FFF7FEFF 		bl	SystemClock_Config
 750              	.LVL29:
 108:Core/Src/main.c ****   MX_DMA_Init();
 751              		.loc 1 108 3 view .LVU223
 752 000a FFF7FEFF 		bl	MX_GPIO_Init
 753              	.LVL30:
 109:Core/Src/main.c ****   MX_ADC1_Init();
 754              		.loc 1 109 3 view .LVU224
 755 000e FFF7FEFF 		bl	MX_DMA_Init
 756              	.LVL31:
 110:Core/Src/main.c ****   MX_SPI2_Init();
 757              		.loc 1 110 3 view .LVU225
 758 0012 FFF7FEFF 		bl	MX_ADC1_Init
 759              	.LVL32:
 111:Core/Src/main.c ****   MX_USART2_UART_Init();
 760              		.loc 1 111 3 view .LVU226
 761 0016 FFF7FEFF 		bl	MX_SPI2_Init
 762              	.LVL33:
 112:Core/Src/main.c ****   /* USER CODE BEGIN 2 */
 763              		.loc 1 112 3 view .LVU227
 764 001a FFF7FEFF 		bl	MX_USART2_UART_Init
 765              	.LVL34:
 114:Core/Src/main.c ****   /* USER CODE END 2 */
 766              		.loc 1 114 3 view .LVU228
 767 001e 0222     		movs	r2, #2
 768 0020 1749     		ldr	r1, .L45
 769 0022 1848     		ldr	r0, .L45+4
 770 0024 FFF7FEFF 		bl	HAL_ADC_Start_DMA
 771              	.LVL35:
 772 0028 23E0     		b	.L41
 773              	.LVL36:
ARM GAS  C:\Users\tugru\AppData\Local\Temp\ccFbFeub.s 			page 28


 774              	.L43:
 775              	.LBB11:
 126:Core/Src/main.c ****       adc_1=rawValues[1];
 776              		.loc 1 126 7 discriminator 3 view .LVU229
 126:Core/Src/main.c ****       adc_1=rawValues[1];
 777              		.loc 1 126 22 is_stmt 0 discriminator 3 view .LVU230
 778 002a 154A     		ldr	r2, .L45
 779 002c 1078     		ldrb	r0, [r2]
 126:Core/Src/main.c ****       adc_1=rawValues[1];
 780              		.loc 1 126 12 discriminator 3 view .LVU231
 781 002e 1649     		ldr	r1, .L45+8
 782 0030 0880     		strh	r0, [r1]
 127:Core/Src/main.c ****       /* code */
 783              		.loc 1 127 7 is_stmt 1 discriminator 3 view .LVU232
 127:Core/Src/main.c ****       /* code */
 784              		.loc 1 127 22 is_stmt 0 discriminator 3 view .LVU233
 785 0032 5178     		ldrb	r1, [r2, #1]
 127:Core/Src/main.c ****       /* code */
 786              		.loc 1 127 12 discriminator 3 view .LVU234
 787 0034 154A     		ldr	r2, .L45+12
 788 0036 1180     		strh	r1, [r2]
 125:Core/Src/main.c ****       adc_0=rawValues[0];
 789              		.loc 1 125 55 is_stmt 1 discriminator 3 view .LVU235
 125:Core/Src/main.c ****       adc_0=rawValues[0];
 790              		.loc 1 125 56 is_stmt 0 discriminator 3 view .LVU236
 791 0038 0133     		adds	r3, r3, #1
 792              	.LVL37:
 125:Core/Src/main.c ****       adc_0=rawValues[0];
 793              		.loc 1 125 56 discriminator 3 view .LVU237
 794 003a DBB2     		uxtb	r3, r3
 795              	.LVL38:
 796              	.L42:
 125:Core/Src/main.c ****       adc_0=rawValues[0];
 797              		.loc 1 125 24 is_stmt 1 discriminator 1 view .LVU238
 125:Core/Src/main.c ****       adc_0=rawValues[0];
 798              		.loc 1 125 37 is_stmt 0 discriminator 1 view .LVU239
 799 003c 114A     		ldr	r2, .L45+4
 800 003e D269     		ldr	r2, [r2, #28]
 125:Core/Src/main.c ****       adc_0=rawValues[0];
 801              		.loc 1 125 5 discriminator 1 view .LVU240
 802 0040 9342     		cmp	r3, r2
 803 0042 F2D3     		bcc	.L43
 804              	.LBE11:
 130:Core/Src/main.c ****     HAL_UART_Transmit(&huart2,(uint8_t *)msg,strlen(msg),HAL_MAX_DELAY);
 805              		.loc 1 130 5 is_stmt 1 view .LVU241
 806 0044 114B     		ldr	r3, .L45+12
 807              	.LVL39:
 130:Core/Src/main.c ****     HAL_UART_Transmit(&huart2,(uint8_t *)msg,strlen(msg),HAL_MAX_DELAY);
 808              		.loc 1 130 5 is_stmt 0 view .LVU242
 809 0046 1B88     		ldrh	r3, [r3]
 810 0048 0F4A     		ldr	r2, .L45+8
 811 004a 1288     		ldrh	r2, [r2]
 812 004c 104C     		ldr	r4, .L45+16
 813 004e 1149     		ldr	r1, .L45+20
 814 0050 2000     		movs	r0, r4
 815 0052 FFF7FEFF 		bl	sprintf
 816              	.LVL40:
ARM GAS  C:\Users\tugru\AppData\Local\Temp\ccFbFeub.s 			page 29


 131:Core/Src/main.c ****     HAL_Delay(1000);
 817              		.loc 1 131 5 is_stmt 1 view .LVU243
 131:Core/Src/main.c ****     HAL_Delay(1000);
 818              		.loc 1 131 46 is_stmt 0 view .LVU244
 819 0056 2000     		movs	r0, r4
 820 0058 FFF7FEFF 		bl	strlen
 821              	.LVL41:
 131:Core/Src/main.c ****     HAL_Delay(1000);
 822              		.loc 1 131 5 view .LVU245
 823 005c 0123     		movs	r3, #1
 824 005e 82B2     		uxth	r2, r0
 825 0060 5B42     		rsbs	r3, r3, #0
 826 0062 2100     		movs	r1, r4
 827 0064 0C48     		ldr	r0, .L45+24
 828 0066 FFF7FEFF 		bl	HAL_UART_Transmit
 829              	.LVL42:
 132:Core/Src/main.c ****   }
 830              		.loc 1 132 5 is_stmt 1 view .LVU246
 831 006a FA20     		movs	r0, #250
 832 006c 8000     		lsls	r0, r0, #2
 833 006e FFF7FEFF 		bl	HAL_Delay
 834              	.LVL43:
 119:Core/Src/main.c ****   {
 835              		.loc 1 119 9 view .LVU247
 836              	.L41:
 124:Core/Src/main.c ****     for (uint8_t i =0; i< hadc1.Init.NbrOfConversion; i++){
 837              		.loc 1 124 27 discriminator 1 view .LVU248
 124:Core/Src/main.c ****     for (uint8_t i =0; i< hadc1.Init.NbrOfConversion; i++){
 838              		.loc 1 124 11 discriminator 1 view .LVU249
 124:Core/Src/main.c ****     for (uint8_t i =0; i< hadc1.Init.NbrOfConversion; i++){
 839              		.loc 1 124 12 is_stmt 0 discriminator 1 view .LVU250
 840 0072 0A4B     		ldr	r3, .L45+28
 841 0074 1B78     		ldrb	r3, [r3]
 124:Core/Src/main.c ****     for (uint8_t i =0; i< hadc1.Init.NbrOfConversion; i++){
 842              		.loc 1 124 11 discriminator 1 view .LVU251
 843 0076 002B     		cmp	r3, #0
 844 0078 FBD0     		beq	.L41
 845              	.LBB12:
 125:Core/Src/main.c ****       adc_0=rawValues[0];
 846              		.loc 1 125 18 view .LVU252
 847 007a 0023     		movs	r3, #0
 848 007c DEE7     		b	.L42
 849              	.L46:
 850 007e C046     		.align	2
 851              	.L45:
 852 0080 00000000 		.word	.LANCHOR3
 853 0084 00000000 		.word	.LANCHOR1
 854 0088 00000000 		.word	.LANCHOR4
 855 008c 00000000 		.word	.LANCHOR5
 856 0090 00000000 		.word	.LANCHOR6
 857 0094 00000000 		.word	.LC9
 858 0098 00000000 		.word	huart2
 859 009c 00000000 		.word	.LANCHOR0
 860              	.LBE12:
 861              		.cfi_endproc
 862              	.LFE444:
 864              		.global	convCompleted
ARM GAS  C:\Users\tugru\AppData\Local\Temp\ccFbFeub.s 			page 30


 865              		.global	msg
 866              		.global	rawValues
 867              		.global	adc_1
 868              		.global	adc_0
 869              		.global	huart2
 870              		.global	hspi2
 871              		.global	hdma_adc1
 872              		.global	hadc1
 873              		.section	.bss.adc_0,"aw",%nobits
 874              		.align	1
 875              		.set	.LANCHOR4,. + 0
 878              	adc_0:
 879 0000 0000     		.space	2
 880              		.section	.bss.adc_1,"aw",%nobits
 881              		.align	1
 882              		.set	.LANCHOR5,. + 0
 885              	adc_1:
 886 0000 0000     		.space	2
 887              		.section	.bss.convCompleted,"aw",%nobits
 888              		.set	.LANCHOR0,. + 0
 891              	convCompleted:
 892 0000 00       		.space	1
 893              		.section	.bss.hadc1,"aw",%nobits
 894              		.align	2
 895              		.set	.LANCHOR1,. + 0
 898              	hadc1:
 899 0000 00000000 		.space	100
 899      00000000 
 899      00000000 
 899      00000000 
 899      00000000 
 900              		.section	.bss.hdma_adc1,"aw",%nobits
 901              		.align	2
 904              	hdma_adc1:
 905 0000 00000000 		.space	92
 905      00000000 
 905      00000000 
 905      00000000 
 905      00000000 
 906              		.section	.bss.hspi2,"aw",%nobits
 907              		.align	2
 908              		.set	.LANCHOR2,. + 0
 911              	hspi2:
 912 0000 00000000 		.space	100
 912      00000000 
 912      00000000 
 912      00000000 
 912      00000000 
 913              		.section	.bss.huart2,"aw",%nobits
 914              		.align	2
 917              	huart2:
 918 0000 00000000 		.space	148
 918      00000000 
 918      00000000 
 918      00000000 
 918      00000000 
 919              		.section	.bss.msg,"aw",%nobits
ARM GAS  C:\Users\tugru\AppData\Local\Temp\ccFbFeub.s 			page 31


 920              		.align	2
 921              		.set	.LANCHOR6,. + 0
 924              	msg:
 925 0000 00000000 		.space	100
 925      00000000 
 925      00000000 
 925      00000000 
 925      00000000 
 926              		.section	.bss.rawValues,"aw",%nobits
 927              		.align	2
 928              		.set	.LANCHOR3,. + 0
 931              	rawValues:
 932 0000 0000     		.space	2
 933              		.text
 934              	.Letext0:
 935              		.file 3 "c:\\dev\\tools\\gcc-arm-none-eabi-10.3-2021.10\\arm-none-eabi\\include\\machine\\_default
 936              		.file 4 "c:\\dev\\tools\\gcc-arm-none-eabi-10.3-2021.10\\arm-none-eabi\\include\\sys\\_stdint.h"
 937              		.file 5 "Drivers/CMSIS/Device/ST/STM32G0xx/Include/stm32g070xx.h"
 938              		.file 6 "Drivers/CMSIS/Device/ST/STM32G0xx/Include/stm32g0xx.h"
 939              		.file 7 "Drivers/STM32G0xx_HAL_Driver/Inc/stm32g0xx_hal_def.h"
 940              		.file 8 "Drivers/STM32G0xx_HAL_Driver/Inc/stm32g0xx_hal_rcc.h"
 941              		.file 9 "Drivers/STM32G0xx_HAL_Driver/Inc/stm32g0xx_hal_gpio.h"
 942              		.file 10 "Drivers/STM32G0xx_HAL_Driver/Inc/stm32g0xx_hal_dma.h"
 943              		.file 11 "Drivers/STM32G0xx_HAL_Driver/Inc/stm32g0xx_hal_adc.h"
 944              		.file 12 "Drivers/STM32G0xx_HAL_Driver/Inc/stm32g0xx_hal_spi.h"
 945              		.file 13 "Drivers/STM32G0xx_HAL_Driver/Inc/stm32g0xx_hal_uart.h"
 946              		.file 14 "Drivers/STM32G0xx_HAL_Driver/Inc/stm32g0xx_ll_dma.h"
 947              		.file 15 "Drivers/STM32G0xx_HAL_Driver/Inc/stm32g0xx_hal_cortex.h"
 948              		.file 16 "Drivers/STM32G0xx_HAL_Driver/Inc/stm32g0xx_hal_uart_ex.h"
 949              		.file 17 "Drivers/STM32G0xx_HAL_Driver/Inc/stm32g0xx_hal_pwr_ex.h"
 950              		.file 18 "Drivers/STM32G0xx_HAL_Driver/Inc/stm32g0xx_hal.h"
 951              		.file 19 "c:\\dev\\tools\\gcc-arm-none-eabi-10.3-2021.10\\arm-none-eabi\\include\\stdio.h"
 952              		.file 20 "c:\\dev\\tools\\gcc-arm-none-eabi-10.3-2021.10\\arm-none-eabi\\include\\string.h"
 953              		.file 21 "<built-in>"
ARM GAS  C:\Users\tugru\AppData\Local\Temp\ccFbFeub.s 			page 32

