ARM GAS  C:\Users\tugru\AppData\Local\Temp\ccI2jYbD.s 			page 1


   1              		.cpu cortex-m0plus
   2              		.arch armv6s-m
   3              		.fpu softvfp
   4              		.eabi_attribute 20, 1
   5              		.eabi_attribute 21, 1
   6              		.eabi_attribute 23, 3
   7              		.eabi_attribute 24, 1
   8              		.eabi_attribute 25, 1
   9              		.eabi_attribute 26, 1
  10              		.eabi_attribute 30, 1
  11              		.eabi_attribute 34, 0
  12              		.eabi_attribute 18, 4
  13              		.file	"stm32g0xx_hal_msp.c"
  14              		.text
  15              	.Ltext0:
  16              		.cfi_sections	.debug_frame
  17              		.section	.text.HAL_MspInit,"ax",%progbits
  18              		.align	1
  19              		.global	HAL_MspInit
  20              		.syntax unified
  21              		.code	16
  22              		.thumb_func
  24              	HAL_MspInit:
  25              	.LFB443:
  26              		.file 1 "Core/Src/stm32g0xx_hal_msp.c"
   1:Core/Src/stm32g0xx_hal_msp.c **** 
   2:Core/Src/stm32g0xx_hal_msp.c **** /* USER CODE BEGIN Header */
   3:Core/Src/stm32g0xx_hal_msp.c **** /**
   4:Core/Src/stm32g0xx_hal_msp.c ****   ******************************************************************************
   5:Core/Src/stm32g0xx_hal_msp.c ****   * @file         stm32g0xx_hal_msp.c
   6:Core/Src/stm32g0xx_hal_msp.c ****   * @brief        This file provides code for the MSP Initialization
   7:Core/Src/stm32g0xx_hal_msp.c ****   *               and de-Initialization codes.
   8:Core/Src/stm32g0xx_hal_msp.c ****   ******************************************************************************
   9:Core/Src/stm32g0xx_hal_msp.c ****   * @attention
  10:Core/Src/stm32g0xx_hal_msp.c ****   *
  11:Core/Src/stm32g0xx_hal_msp.c ****   * Copyright (c) 2025 STMicroelectronics.
  12:Core/Src/stm32g0xx_hal_msp.c ****   * All rights reserved.
  13:Core/Src/stm32g0xx_hal_msp.c ****   *
  14:Core/Src/stm32g0xx_hal_msp.c ****   * This software is licensed under terms that can be found in the LICENSE file
  15:Core/Src/stm32g0xx_hal_msp.c ****   * in the root directory of this software component.
  16:Core/Src/stm32g0xx_hal_msp.c ****   * If no LICENSE file comes with this software, it is provided AS-IS.
  17:Core/Src/stm32g0xx_hal_msp.c ****   *
  18:Core/Src/stm32g0xx_hal_msp.c ****   ******************************************************************************
  19:Core/Src/stm32g0xx_hal_msp.c ****   */
  20:Core/Src/stm32g0xx_hal_msp.c **** /* USER CODE END Header */
  21:Core/Src/stm32g0xx_hal_msp.c **** 
  22:Core/Src/stm32g0xx_hal_msp.c **** /* Includes ------------------------------------------------------------------*/
  23:Core/Src/stm32g0xx_hal_msp.c **** #include "main.h"
  24:Core/Src/stm32g0xx_hal_msp.c **** /* USER CODE BEGIN Includes */
  25:Core/Src/stm32g0xx_hal_msp.c **** 
  26:Core/Src/stm32g0xx_hal_msp.c **** /* USER CODE END Includes */
  27:Core/Src/stm32g0xx_hal_msp.c **** extern DMA_HandleTypeDef hdma_adc1;
  28:Core/Src/stm32g0xx_hal_msp.c **** 
  29:Core/Src/stm32g0xx_hal_msp.c **** /* Private typedef -----------------------------------------------------------*/
  30:Core/Src/stm32g0xx_hal_msp.c **** /* USER CODE BEGIN TD */
  31:Core/Src/stm32g0xx_hal_msp.c **** 
  32:Core/Src/stm32g0xx_hal_msp.c **** /* USER CODE END TD */
ARM GAS  C:\Users\tugru\AppData\Local\Temp\ccI2jYbD.s 			page 2


  33:Core/Src/stm32g0xx_hal_msp.c **** 
  34:Core/Src/stm32g0xx_hal_msp.c **** /* Private define ------------------------------------------------------------*/
  35:Core/Src/stm32g0xx_hal_msp.c **** /* USER CODE BEGIN Define */
  36:Core/Src/stm32g0xx_hal_msp.c **** 
  37:Core/Src/stm32g0xx_hal_msp.c **** /* USER CODE END Define */
  38:Core/Src/stm32g0xx_hal_msp.c **** 
  39:Core/Src/stm32g0xx_hal_msp.c **** /* Private macro -------------------------------------------------------------*/
  40:Core/Src/stm32g0xx_hal_msp.c **** /* USER CODE BEGIN Macro */
  41:Core/Src/stm32g0xx_hal_msp.c **** 
  42:Core/Src/stm32g0xx_hal_msp.c **** /* USER CODE END Macro */
  43:Core/Src/stm32g0xx_hal_msp.c **** 
  44:Core/Src/stm32g0xx_hal_msp.c **** /* Private variables ---------------------------------------------------------*/
  45:Core/Src/stm32g0xx_hal_msp.c **** /* USER CODE BEGIN PV */
  46:Core/Src/stm32g0xx_hal_msp.c **** 
  47:Core/Src/stm32g0xx_hal_msp.c **** /* USER CODE END PV */
  48:Core/Src/stm32g0xx_hal_msp.c **** 
  49:Core/Src/stm32g0xx_hal_msp.c **** /* Private function prototypes -----------------------------------------------*/
  50:Core/Src/stm32g0xx_hal_msp.c **** /* USER CODE BEGIN PFP */
  51:Core/Src/stm32g0xx_hal_msp.c **** 
  52:Core/Src/stm32g0xx_hal_msp.c **** /* USER CODE END PFP */
  53:Core/Src/stm32g0xx_hal_msp.c **** 
  54:Core/Src/stm32g0xx_hal_msp.c **** /* External functions --------------------------------------------------------*/
  55:Core/Src/stm32g0xx_hal_msp.c **** /* USER CODE BEGIN ExternalFunctions */
  56:Core/Src/stm32g0xx_hal_msp.c **** 
  57:Core/Src/stm32g0xx_hal_msp.c **** /* USER CODE END ExternalFunctions */
  58:Core/Src/stm32g0xx_hal_msp.c **** 
  59:Core/Src/stm32g0xx_hal_msp.c **** /* USER CODE BEGIN 0 */
  60:Core/Src/stm32g0xx_hal_msp.c **** 
  61:Core/Src/stm32g0xx_hal_msp.c **** /* USER CODE END 0 */
  62:Core/Src/stm32g0xx_hal_msp.c **** /**
  63:Core/Src/stm32g0xx_hal_msp.c ****   * Initializes the Global MSP.
  64:Core/Src/stm32g0xx_hal_msp.c ****   */
  65:Core/Src/stm32g0xx_hal_msp.c **** void HAL_MspInit(void)
  66:Core/Src/stm32g0xx_hal_msp.c **** {
  27              		.loc 1 66 1 view -0
  28              		.cfi_startproc
  29              		@ args = 0, pretend = 0, frame = 8
  30              		@ frame_needed = 0, uses_anonymous_args = 0
  31              		@ link register save eliminated.
  32 0000 82B0     		sub	sp, sp, #8
  33              	.LCFI0:
  34              		.cfi_def_cfa_offset 8
  67:Core/Src/stm32g0xx_hal_msp.c **** 
  68:Core/Src/stm32g0xx_hal_msp.c ****   /* USER CODE BEGIN MspInit 0 */
  69:Core/Src/stm32g0xx_hal_msp.c **** 
  70:Core/Src/stm32g0xx_hal_msp.c ****   /* USER CODE END MspInit 0 */
  71:Core/Src/stm32g0xx_hal_msp.c **** 
  72:Core/Src/stm32g0xx_hal_msp.c ****   __HAL_RCC_SYSCFG_CLK_ENABLE();
  35              		.loc 1 72 3 view .LVU1
  36              	.LBB2:
  37              		.loc 1 72 3 view .LVU2
  38              		.loc 1 72 3 view .LVU3
  39 0002 0A4B     		ldr	r3, .L2
  40 0004 196C     		ldr	r1, [r3, #64]
  41 0006 0122     		movs	r2, #1
  42 0008 1143     		orrs	r1, r2
  43 000a 1964     		str	r1, [r3, #64]
ARM GAS  C:\Users\tugru\AppData\Local\Temp\ccI2jYbD.s 			page 3


  44              		.loc 1 72 3 view .LVU4
  45 000c 196C     		ldr	r1, [r3, #64]
  46 000e 0A40     		ands	r2, r1
  47 0010 0092     		str	r2, [sp]
  48              		.loc 1 72 3 view .LVU5
  49 0012 009A     		ldr	r2, [sp]
  50              	.LBE2:
  51              		.loc 1 72 3 view .LVU6
  73:Core/Src/stm32g0xx_hal_msp.c ****   __HAL_RCC_PWR_CLK_ENABLE();
  52              		.loc 1 73 3 view .LVU7
  53              	.LBB3:
  54              		.loc 1 73 3 view .LVU8
  55              		.loc 1 73 3 view .LVU9
  56 0014 DA6B     		ldr	r2, [r3, #60]
  57 0016 8021     		movs	r1, #128
  58 0018 4905     		lsls	r1, r1, #21
  59 001a 0A43     		orrs	r2, r1
  60 001c DA63     		str	r2, [r3, #60]
  61              		.loc 1 73 3 view .LVU10
  62 001e DB6B     		ldr	r3, [r3, #60]
  63 0020 0B40     		ands	r3, r1
  64 0022 0193     		str	r3, [sp, #4]
  65              		.loc 1 73 3 view .LVU11
  66 0024 019B     		ldr	r3, [sp, #4]
  67              	.LBE3:
  68              		.loc 1 73 3 view .LVU12
  74:Core/Src/stm32g0xx_hal_msp.c **** 
  75:Core/Src/stm32g0xx_hal_msp.c ****   /* System interrupt init*/
  76:Core/Src/stm32g0xx_hal_msp.c **** 
  77:Core/Src/stm32g0xx_hal_msp.c ****   /* USER CODE BEGIN MspInit 1 */
  78:Core/Src/stm32g0xx_hal_msp.c **** 
  79:Core/Src/stm32g0xx_hal_msp.c ****   /* USER CODE END MspInit 1 */
  80:Core/Src/stm32g0xx_hal_msp.c **** }
  69              		.loc 1 80 1 is_stmt 0 view .LVU13
  70 0026 02B0     		add	sp, sp, #8
  71              		@ sp needed
  72 0028 7047     		bx	lr
  73              	.L3:
  74 002a C046     		.align	2
  75              	.L2:
  76 002c 00100240 		.word	1073876992
  77              		.cfi_endproc
  78              	.LFE443:
  80              		.section	.text.HAL_ADC_MspInit,"ax",%progbits
  81              		.align	1
  82              		.global	HAL_ADC_MspInit
  83              		.syntax unified
  84              		.code	16
  85              		.thumb_func
  87              	HAL_ADC_MspInit:
  88              	.LVL0:
  89              	.LFB444:
  81:Core/Src/stm32g0xx_hal_msp.c **** 
  82:Core/Src/stm32g0xx_hal_msp.c **** /**
  83:Core/Src/stm32g0xx_hal_msp.c **** * @brief ADC MSP Initialization
  84:Core/Src/stm32g0xx_hal_msp.c **** * This function configures the hardware resources used in this example
  85:Core/Src/stm32g0xx_hal_msp.c **** * @param hadc: ADC handle pointer
ARM GAS  C:\Users\tugru\AppData\Local\Temp\ccI2jYbD.s 			page 4


  86:Core/Src/stm32g0xx_hal_msp.c **** * @retval None
  87:Core/Src/stm32g0xx_hal_msp.c **** */
  88:Core/Src/stm32g0xx_hal_msp.c **** void HAL_ADC_MspInit(ADC_HandleTypeDef* hadc)
  89:Core/Src/stm32g0xx_hal_msp.c **** {
  90              		.loc 1 89 1 is_stmt 1 view -0
  91              		.cfi_startproc
  92              		@ args = 0, pretend = 0, frame = 56
  93              		@ frame_needed = 0, uses_anonymous_args = 0
  94              		.loc 1 89 1 is_stmt 0 view .LVU15
  95 0000 30B5     		push	{r4, r5, lr}
  96              	.LCFI1:
  97              		.cfi_def_cfa_offset 12
  98              		.cfi_offset 4, -12
  99              		.cfi_offset 5, -8
 100              		.cfi_offset 14, -4
 101 0002 8FB0     		sub	sp, sp, #60
 102              	.LCFI2:
 103              		.cfi_def_cfa_offset 72
 104 0004 0400     		movs	r4, r0
  90:Core/Src/stm32g0xx_hal_msp.c ****   GPIO_InitTypeDef GPIO_InitStruct = {0};
 105              		.loc 1 90 3 is_stmt 1 view .LVU16
 106              		.loc 1 90 20 is_stmt 0 view .LVU17
 107 0006 1422     		movs	r2, #20
 108 0008 0021     		movs	r1, #0
 109 000a 09A8     		add	r0, sp, #36
 110              	.LVL1:
 111              		.loc 1 90 20 view .LVU18
 112 000c FFF7FEFF 		bl	memset
 113              	.LVL2:
  91:Core/Src/stm32g0xx_hal_msp.c ****   RCC_PeriphCLKInitTypeDef PeriphClkInit = {0};
 114              		.loc 1 91 3 is_stmt 1 view .LVU19
 115              		.loc 1 91 28 is_stmt 0 view .LVU20
 116 0010 1C22     		movs	r2, #28
 117 0012 0021     		movs	r1, #0
 118 0014 02A8     		add	r0, sp, #8
 119 0016 FFF7FEFF 		bl	memset
 120              	.LVL3:
  92:Core/Src/stm32g0xx_hal_msp.c ****   if(hadc->Instance==ADC1)
 121              		.loc 1 92 3 is_stmt 1 view .LVU21
 122              		.loc 1 92 5 is_stmt 0 view .LVU22
 123 001a 284B     		ldr	r3, .L11
 124 001c 2268     		ldr	r2, [r4]
 125 001e 9A42     		cmp	r2, r3
 126 0020 01D0     		beq	.L8
 127              	.L4:
  93:Core/Src/stm32g0xx_hal_msp.c ****   {
  94:Core/Src/stm32g0xx_hal_msp.c ****   /* USER CODE BEGIN ADC1_MspInit 0 */
  95:Core/Src/stm32g0xx_hal_msp.c **** 
  96:Core/Src/stm32g0xx_hal_msp.c ****   /* USER CODE END ADC1_MspInit 0 */
  97:Core/Src/stm32g0xx_hal_msp.c **** 
  98:Core/Src/stm32g0xx_hal_msp.c ****   /** Initializes the peripherals clocks
  99:Core/Src/stm32g0xx_hal_msp.c ****   */
 100:Core/Src/stm32g0xx_hal_msp.c ****     PeriphClkInit.PeriphClockSelection = RCC_PERIPHCLK_ADC;
 101:Core/Src/stm32g0xx_hal_msp.c ****     PeriphClkInit.AdcClockSelection = RCC_ADCCLKSOURCE_SYSCLK;
 102:Core/Src/stm32g0xx_hal_msp.c ****     if (HAL_RCCEx_PeriphCLKConfig(&PeriphClkInit) != HAL_OK)
 103:Core/Src/stm32g0xx_hal_msp.c ****     {
 104:Core/Src/stm32g0xx_hal_msp.c ****       Error_Handler();
ARM GAS  C:\Users\tugru\AppData\Local\Temp\ccI2jYbD.s 			page 5


 105:Core/Src/stm32g0xx_hal_msp.c ****     }
 106:Core/Src/stm32g0xx_hal_msp.c **** 
 107:Core/Src/stm32g0xx_hal_msp.c ****     /* Peripheral clock enable */
 108:Core/Src/stm32g0xx_hal_msp.c ****     __HAL_RCC_ADC_CLK_ENABLE();
 109:Core/Src/stm32g0xx_hal_msp.c **** 
 110:Core/Src/stm32g0xx_hal_msp.c ****     __HAL_RCC_GPIOA_CLK_ENABLE();
 111:Core/Src/stm32g0xx_hal_msp.c ****     /**ADC1 GPIO Configuration
 112:Core/Src/stm32g0xx_hal_msp.c ****     PA0     ------> ADC1_IN0
 113:Core/Src/stm32g0xx_hal_msp.c ****     PA1     ------> ADC1_IN1
 114:Core/Src/stm32g0xx_hal_msp.c ****     */
 115:Core/Src/stm32g0xx_hal_msp.c ****     GPIO_InitStruct.Pin = GPIO_PIN_0|GPIO_PIN_1;
 116:Core/Src/stm32g0xx_hal_msp.c ****     GPIO_InitStruct.Mode = GPIO_MODE_ANALOG;
 117:Core/Src/stm32g0xx_hal_msp.c ****     GPIO_InitStruct.Pull = GPIO_NOPULL;
 118:Core/Src/stm32g0xx_hal_msp.c ****     HAL_GPIO_Init(GPIOA, &GPIO_InitStruct);
 119:Core/Src/stm32g0xx_hal_msp.c **** 
 120:Core/Src/stm32g0xx_hal_msp.c ****     /* ADC1 DMA Init */
 121:Core/Src/stm32g0xx_hal_msp.c ****     /* ADC1 Init */
 122:Core/Src/stm32g0xx_hal_msp.c ****     hdma_adc1.Instance = DMA1_Channel1;
 123:Core/Src/stm32g0xx_hal_msp.c ****     hdma_adc1.Init.Request = DMA_REQUEST_ADC1;
 124:Core/Src/stm32g0xx_hal_msp.c ****     hdma_adc1.Init.Direction = DMA_PERIPH_TO_MEMORY;
 125:Core/Src/stm32g0xx_hal_msp.c ****     hdma_adc1.Init.PeriphInc = DMA_PINC_DISABLE;
 126:Core/Src/stm32g0xx_hal_msp.c ****     hdma_adc1.Init.MemInc = DMA_MINC_ENABLE;
 127:Core/Src/stm32g0xx_hal_msp.c ****     hdma_adc1.Init.PeriphDataAlignment = DMA_PDATAALIGN_HALFWORD;
 128:Core/Src/stm32g0xx_hal_msp.c ****     hdma_adc1.Init.MemDataAlignment = DMA_MDATAALIGN_HALFWORD;
 129:Core/Src/stm32g0xx_hal_msp.c ****     hdma_adc1.Init.Mode = DMA_CIRCULAR;
 130:Core/Src/stm32g0xx_hal_msp.c ****     hdma_adc1.Init.Priority = DMA_PRIORITY_LOW;
 131:Core/Src/stm32g0xx_hal_msp.c ****     if (HAL_DMA_Init(&hdma_adc1) != HAL_OK)
 132:Core/Src/stm32g0xx_hal_msp.c ****     {
 133:Core/Src/stm32g0xx_hal_msp.c ****       Error_Handler();
 134:Core/Src/stm32g0xx_hal_msp.c ****     }
 135:Core/Src/stm32g0xx_hal_msp.c **** 
 136:Core/Src/stm32g0xx_hal_msp.c ****     __HAL_LINKDMA(hadc,DMA_Handle,hdma_adc1);
 137:Core/Src/stm32g0xx_hal_msp.c **** 
 138:Core/Src/stm32g0xx_hal_msp.c ****     /* ADC1 interrupt Init */
 139:Core/Src/stm32g0xx_hal_msp.c ****     HAL_NVIC_SetPriority(ADC1_IRQn, 1, 0);
 140:Core/Src/stm32g0xx_hal_msp.c ****     HAL_NVIC_EnableIRQ(ADC1_IRQn);
 141:Core/Src/stm32g0xx_hal_msp.c ****   /* USER CODE BEGIN ADC1_MspInit 1 */
 142:Core/Src/stm32g0xx_hal_msp.c **** 
 143:Core/Src/stm32g0xx_hal_msp.c ****   /* USER CODE END ADC1_MspInit 1 */
 144:Core/Src/stm32g0xx_hal_msp.c **** 
 145:Core/Src/stm32g0xx_hal_msp.c ****   }
 146:Core/Src/stm32g0xx_hal_msp.c **** 
 147:Core/Src/stm32g0xx_hal_msp.c **** }
 128              		.loc 1 147 1 view .LVU23
 129 0022 0FB0     		add	sp, sp, #60
 130              		@ sp needed
 131              	.LVL4:
 132              		.loc 1 147 1 view .LVU24
 133 0024 30BD     		pop	{r4, r5, pc}
 134              	.LVL5:
 135              	.L8:
 100:Core/Src/stm32g0xx_hal_msp.c ****     PeriphClkInit.AdcClockSelection = RCC_ADCCLKSOURCE_SYSCLK;
 136              		.loc 1 100 5 is_stmt 1 view .LVU25
 100:Core/Src/stm32g0xx_hal_msp.c ****     PeriphClkInit.AdcClockSelection = RCC_ADCCLKSOURCE_SYSCLK;
 137              		.loc 1 100 40 is_stmt 0 view .LVU26
 138 0026 8023     		movs	r3, #128
 139 0028 DB01     		lsls	r3, r3, #7
ARM GAS  C:\Users\tugru\AppData\Local\Temp\ccI2jYbD.s 			page 6


 140 002a 0293     		str	r3, [sp, #8]
 101:Core/Src/stm32g0xx_hal_msp.c ****     if (HAL_RCCEx_PeriphCLKConfig(&PeriphClkInit) != HAL_OK)
 141              		.loc 1 101 5 is_stmt 1 view .LVU27
 102:Core/Src/stm32g0xx_hal_msp.c ****     {
 142              		.loc 1 102 5 view .LVU28
 102:Core/Src/stm32g0xx_hal_msp.c ****     {
 143              		.loc 1 102 9 is_stmt 0 view .LVU29
 144 002c 02A8     		add	r0, sp, #8
 145 002e FFF7FEFF 		bl	HAL_RCCEx_PeriphCLKConfig
 146              	.LVL6:
 102:Core/Src/stm32g0xx_hal_msp.c ****     {
 147              		.loc 1 102 8 view .LVU30
 148 0032 0028     		cmp	r0, #0
 149 0034 3CD1     		bne	.L9
 150              	.L6:
 108:Core/Src/stm32g0xx_hal_msp.c **** 
 151              		.loc 1 108 5 is_stmt 1 view .LVU31
 152              	.LBB4:
 108:Core/Src/stm32g0xx_hal_msp.c **** 
 153              		.loc 1 108 5 view .LVU32
 108:Core/Src/stm32g0xx_hal_msp.c **** 
 154              		.loc 1 108 5 view .LVU33
 155 0036 224B     		ldr	r3, .L11+4
 156 0038 196C     		ldr	r1, [r3, #64]
 157 003a 8020     		movs	r0, #128
 158 003c 4003     		lsls	r0, r0, #13
 159 003e 0143     		orrs	r1, r0
 160 0040 1964     		str	r1, [r3, #64]
 108:Core/Src/stm32g0xx_hal_msp.c **** 
 161              		.loc 1 108 5 view .LVU34
 162 0042 1A6C     		ldr	r2, [r3, #64]
 163 0044 0240     		ands	r2, r0
 164 0046 0092     		str	r2, [sp]
 108:Core/Src/stm32g0xx_hal_msp.c **** 
 165              		.loc 1 108 5 view .LVU35
 166 0048 009A     		ldr	r2, [sp]
 167              	.LBE4:
 108:Core/Src/stm32g0xx_hal_msp.c **** 
 168              		.loc 1 108 5 view .LVU36
 110:Core/Src/stm32g0xx_hal_msp.c ****     /**ADC1 GPIO Configuration
 169              		.loc 1 110 5 view .LVU37
 170              	.LBB5:
 110:Core/Src/stm32g0xx_hal_msp.c ****     /**ADC1 GPIO Configuration
 171              		.loc 1 110 5 view .LVU38
 110:Core/Src/stm32g0xx_hal_msp.c ****     /**ADC1 GPIO Configuration
 172              		.loc 1 110 5 view .LVU39
 173 004a 596B     		ldr	r1, [r3, #52]
 174 004c 0122     		movs	r2, #1
 175 004e 1143     		orrs	r1, r2
 176 0050 5963     		str	r1, [r3, #52]
 110:Core/Src/stm32g0xx_hal_msp.c ****     /**ADC1 GPIO Configuration
 177              		.loc 1 110 5 view .LVU40
 178 0052 5B6B     		ldr	r3, [r3, #52]
 179 0054 1A40     		ands	r2, r3
 180 0056 0192     		str	r2, [sp, #4]
 110:Core/Src/stm32g0xx_hal_msp.c ****     /**ADC1 GPIO Configuration
 181              		.loc 1 110 5 view .LVU41
ARM GAS  C:\Users\tugru\AppData\Local\Temp\ccI2jYbD.s 			page 7


 182 0058 019B     		ldr	r3, [sp, #4]
 183              	.LBE5:
 110:Core/Src/stm32g0xx_hal_msp.c ****     /**ADC1 GPIO Configuration
 184              		.loc 1 110 5 view .LVU42
 115:Core/Src/stm32g0xx_hal_msp.c ****     GPIO_InitStruct.Mode = GPIO_MODE_ANALOG;
 185              		.loc 1 115 5 view .LVU43
 115:Core/Src/stm32g0xx_hal_msp.c ****     GPIO_InitStruct.Mode = GPIO_MODE_ANALOG;
 186              		.loc 1 115 25 is_stmt 0 view .LVU44
 187 005a 0323     		movs	r3, #3
 188 005c 0993     		str	r3, [sp, #36]
 116:Core/Src/stm32g0xx_hal_msp.c ****     GPIO_InitStruct.Pull = GPIO_NOPULL;
 189              		.loc 1 116 5 is_stmt 1 view .LVU45
 116:Core/Src/stm32g0xx_hal_msp.c ****     GPIO_InitStruct.Pull = GPIO_NOPULL;
 190              		.loc 1 116 26 is_stmt 0 view .LVU46
 191 005e 0A93     		str	r3, [sp, #40]
 117:Core/Src/stm32g0xx_hal_msp.c ****     HAL_GPIO_Init(GPIOA, &GPIO_InitStruct);
 192              		.loc 1 117 5 is_stmt 1 view .LVU47
 117:Core/Src/stm32g0xx_hal_msp.c ****     HAL_GPIO_Init(GPIOA, &GPIO_InitStruct);
 193              		.loc 1 117 26 is_stmt 0 view .LVU48
 194 0060 0025     		movs	r5, #0
 195 0062 0B95     		str	r5, [sp, #44]
 118:Core/Src/stm32g0xx_hal_msp.c **** 
 196              		.loc 1 118 5 is_stmt 1 view .LVU49
 197 0064 A020     		movs	r0, #160
 198 0066 09A9     		add	r1, sp, #36
 199 0068 C005     		lsls	r0, r0, #23
 200 006a FFF7FEFF 		bl	HAL_GPIO_Init
 201              	.LVL7:
 122:Core/Src/stm32g0xx_hal_msp.c ****     hdma_adc1.Init.Request = DMA_REQUEST_ADC1;
 202              		.loc 1 122 5 view .LVU50
 122:Core/Src/stm32g0xx_hal_msp.c ****     hdma_adc1.Init.Request = DMA_REQUEST_ADC1;
 203              		.loc 1 122 24 is_stmt 0 view .LVU51
 204 006e 1548     		ldr	r0, .L11+8
 205 0070 154B     		ldr	r3, .L11+12
 206 0072 0360     		str	r3, [r0]
 123:Core/Src/stm32g0xx_hal_msp.c ****     hdma_adc1.Init.Direction = DMA_PERIPH_TO_MEMORY;
 207              		.loc 1 123 5 is_stmt 1 view .LVU52
 123:Core/Src/stm32g0xx_hal_msp.c ****     hdma_adc1.Init.Direction = DMA_PERIPH_TO_MEMORY;
 208              		.loc 1 123 28 is_stmt 0 view .LVU53
 209 0074 0523     		movs	r3, #5
 210 0076 4360     		str	r3, [r0, #4]
 124:Core/Src/stm32g0xx_hal_msp.c ****     hdma_adc1.Init.PeriphInc = DMA_PINC_DISABLE;
 211              		.loc 1 124 5 is_stmt 1 view .LVU54
 124:Core/Src/stm32g0xx_hal_msp.c ****     hdma_adc1.Init.PeriphInc = DMA_PINC_DISABLE;
 212              		.loc 1 124 30 is_stmt 0 view .LVU55
 213 0078 8560     		str	r5, [r0, #8]
 125:Core/Src/stm32g0xx_hal_msp.c ****     hdma_adc1.Init.MemInc = DMA_MINC_ENABLE;
 214              		.loc 1 125 5 is_stmt 1 view .LVU56
 125:Core/Src/stm32g0xx_hal_msp.c ****     hdma_adc1.Init.MemInc = DMA_MINC_ENABLE;
 215              		.loc 1 125 30 is_stmt 0 view .LVU57
 216 007a C560     		str	r5, [r0, #12]
 126:Core/Src/stm32g0xx_hal_msp.c ****     hdma_adc1.Init.PeriphDataAlignment = DMA_PDATAALIGN_HALFWORD;
 217              		.loc 1 126 5 is_stmt 1 view .LVU58
 126:Core/Src/stm32g0xx_hal_msp.c ****     hdma_adc1.Init.PeriphDataAlignment = DMA_PDATAALIGN_HALFWORD;
 218              		.loc 1 126 27 is_stmt 0 view .LVU59
 219 007c 7B33     		adds	r3, r3, #123
 220 007e 0361     		str	r3, [r0, #16]
ARM GAS  C:\Users\tugru\AppData\Local\Temp\ccI2jYbD.s 			page 8


 127:Core/Src/stm32g0xx_hal_msp.c ****     hdma_adc1.Init.MemDataAlignment = DMA_MDATAALIGN_HALFWORD;
 221              		.loc 1 127 5 is_stmt 1 view .LVU60
 127:Core/Src/stm32g0xx_hal_msp.c ****     hdma_adc1.Init.MemDataAlignment = DMA_MDATAALIGN_HALFWORD;
 222              		.loc 1 127 40 is_stmt 0 view .LVU61
 223 0080 8033     		adds	r3, r3, #128
 224 0082 4361     		str	r3, [r0, #20]
 128:Core/Src/stm32g0xx_hal_msp.c ****     hdma_adc1.Init.Mode = DMA_CIRCULAR;
 225              		.loc 1 128 5 is_stmt 1 view .LVU62
 128:Core/Src/stm32g0xx_hal_msp.c ****     hdma_adc1.Init.Mode = DMA_CIRCULAR;
 226              		.loc 1 128 37 is_stmt 0 view .LVU63
 227 0084 8023     		movs	r3, #128
 228 0086 DB00     		lsls	r3, r3, #3
 229 0088 8361     		str	r3, [r0, #24]
 129:Core/Src/stm32g0xx_hal_msp.c ****     hdma_adc1.Init.Priority = DMA_PRIORITY_LOW;
 230              		.loc 1 129 5 is_stmt 1 view .LVU64
 129:Core/Src/stm32g0xx_hal_msp.c ****     hdma_adc1.Init.Priority = DMA_PRIORITY_LOW;
 231              		.loc 1 129 25 is_stmt 0 view .LVU65
 232 008a 2023     		movs	r3, #32
 233 008c C361     		str	r3, [r0, #28]
 130:Core/Src/stm32g0xx_hal_msp.c ****     if (HAL_DMA_Init(&hdma_adc1) != HAL_OK)
 234              		.loc 1 130 5 is_stmt 1 view .LVU66
 130:Core/Src/stm32g0xx_hal_msp.c ****     if (HAL_DMA_Init(&hdma_adc1) != HAL_OK)
 235              		.loc 1 130 29 is_stmt 0 view .LVU67
 236 008e 0562     		str	r5, [r0, #32]
 131:Core/Src/stm32g0xx_hal_msp.c ****     {
 237              		.loc 1 131 5 is_stmt 1 view .LVU68
 131:Core/Src/stm32g0xx_hal_msp.c ****     {
 238              		.loc 1 131 9 is_stmt 0 view .LVU69
 239 0090 FFF7FEFF 		bl	HAL_DMA_Init
 240              	.LVL8:
 131:Core/Src/stm32g0xx_hal_msp.c ****     {
 241              		.loc 1 131 8 view .LVU70
 242 0094 0028     		cmp	r0, #0
 243 0096 0ED1     		bne	.L10
 244              	.L7:
 136:Core/Src/stm32g0xx_hal_msp.c **** 
 245              		.loc 1 136 5 is_stmt 1 view .LVU71
 136:Core/Src/stm32g0xx_hal_msp.c **** 
 246              		.loc 1 136 5 view .LVU72
 247 0098 0A4B     		ldr	r3, .L11+8
 248 009a 2365     		str	r3, [r4, #80]
 136:Core/Src/stm32g0xx_hal_msp.c **** 
 249              		.loc 1 136 5 view .LVU73
 250 009c 9C62     		str	r4, [r3, #40]
 136:Core/Src/stm32g0xx_hal_msp.c **** 
 251              		.loc 1 136 5 view .LVU74
 139:Core/Src/stm32g0xx_hal_msp.c ****     HAL_NVIC_EnableIRQ(ADC1_IRQn);
 252              		.loc 1 139 5 view .LVU75
 253 009e 0022     		movs	r2, #0
 254 00a0 0121     		movs	r1, #1
 255 00a2 0C20     		movs	r0, #12
 256 00a4 FFF7FEFF 		bl	HAL_NVIC_SetPriority
 257              	.LVL9:
 140:Core/Src/stm32g0xx_hal_msp.c ****   /* USER CODE BEGIN ADC1_MspInit 1 */
 258              		.loc 1 140 5 view .LVU76
 259 00a8 0C20     		movs	r0, #12
 260 00aa FFF7FEFF 		bl	HAL_NVIC_EnableIRQ
ARM GAS  C:\Users\tugru\AppData\Local\Temp\ccI2jYbD.s 			page 9


 261              	.LVL10:
 262              		.loc 1 147 1 is_stmt 0 view .LVU77
 263 00ae B8E7     		b	.L4
 264              	.L9:
 104:Core/Src/stm32g0xx_hal_msp.c ****     }
 265              		.loc 1 104 7 is_stmt 1 view .LVU78
 266 00b0 FFF7FEFF 		bl	Error_Handler
 267              	.LVL11:
 268 00b4 BFE7     		b	.L6
 269              	.L10:
 133:Core/Src/stm32g0xx_hal_msp.c ****     }
 270              		.loc 1 133 7 view .LVU79
 271 00b6 FFF7FEFF 		bl	Error_Handler
 272              	.LVL12:
 273 00ba EDE7     		b	.L7
 274              	.L12:
 275              		.align	2
 276              	.L11:
 277 00bc 00240140 		.word	1073816576
 278 00c0 00100240 		.word	1073876992
 279 00c4 00000000 		.word	hdma_adc1
 280 00c8 08000240 		.word	1073872904
 281              		.cfi_endproc
 282              	.LFE444:
 284              		.section	.text.HAL_ADC_MspDeInit,"ax",%progbits
 285              		.align	1
 286              		.global	HAL_ADC_MspDeInit
 287              		.syntax unified
 288              		.code	16
 289              		.thumb_func
 291              	HAL_ADC_MspDeInit:
 292              	.LVL13:
 293              	.LFB445:
 148:Core/Src/stm32g0xx_hal_msp.c **** 
 149:Core/Src/stm32g0xx_hal_msp.c **** /**
 150:Core/Src/stm32g0xx_hal_msp.c **** * @brief ADC MSP De-Initialization
 151:Core/Src/stm32g0xx_hal_msp.c **** * This function freeze the hardware resources used in this example
 152:Core/Src/stm32g0xx_hal_msp.c **** * @param hadc: ADC handle pointer
 153:Core/Src/stm32g0xx_hal_msp.c **** * @retval None
 154:Core/Src/stm32g0xx_hal_msp.c **** */
 155:Core/Src/stm32g0xx_hal_msp.c **** void HAL_ADC_MspDeInit(ADC_HandleTypeDef* hadc)
 156:Core/Src/stm32g0xx_hal_msp.c **** {
 294              		.loc 1 156 1 view -0
 295              		.cfi_startproc
 296              		@ args = 0, pretend = 0, frame = 0
 297              		@ frame_needed = 0, uses_anonymous_args = 0
 298              		.loc 1 156 1 is_stmt 0 view .LVU81
 299 0000 10B5     		push	{r4, lr}
 300              	.LCFI3:
 301              		.cfi_def_cfa_offset 8
 302              		.cfi_offset 4, -8
 303              		.cfi_offset 14, -4
 304 0002 0400     		movs	r4, r0
 157:Core/Src/stm32g0xx_hal_msp.c ****   if(hadc->Instance==ADC1)
 305              		.loc 1 157 3 is_stmt 1 view .LVU82
 306              		.loc 1 157 5 is_stmt 0 view .LVU83
 307 0004 0A4B     		ldr	r3, .L16
ARM GAS  C:\Users\tugru\AppData\Local\Temp\ccI2jYbD.s 			page 10


 308 0006 0268     		ldr	r2, [r0]
 309 0008 9A42     		cmp	r2, r3
 310 000a 00D0     		beq	.L15
 311              	.LVL14:
 312              	.L13:
 158:Core/Src/stm32g0xx_hal_msp.c ****   {
 159:Core/Src/stm32g0xx_hal_msp.c ****   /* USER CODE BEGIN ADC1_MspDeInit 0 */
 160:Core/Src/stm32g0xx_hal_msp.c **** 
 161:Core/Src/stm32g0xx_hal_msp.c ****   /* USER CODE END ADC1_MspDeInit 0 */
 162:Core/Src/stm32g0xx_hal_msp.c ****     /* Peripheral clock disable */
 163:Core/Src/stm32g0xx_hal_msp.c ****     __HAL_RCC_ADC_CLK_DISABLE();
 164:Core/Src/stm32g0xx_hal_msp.c **** 
 165:Core/Src/stm32g0xx_hal_msp.c ****     /**ADC1 GPIO Configuration
 166:Core/Src/stm32g0xx_hal_msp.c ****     PA0     ------> ADC1_IN0
 167:Core/Src/stm32g0xx_hal_msp.c ****     PA1     ------> ADC1_IN1
 168:Core/Src/stm32g0xx_hal_msp.c ****     */
 169:Core/Src/stm32g0xx_hal_msp.c ****     HAL_GPIO_DeInit(GPIOA, GPIO_PIN_0|GPIO_PIN_1);
 170:Core/Src/stm32g0xx_hal_msp.c **** 
 171:Core/Src/stm32g0xx_hal_msp.c ****     /* ADC1 DMA DeInit */
 172:Core/Src/stm32g0xx_hal_msp.c ****     HAL_DMA_DeInit(hadc->DMA_Handle);
 173:Core/Src/stm32g0xx_hal_msp.c **** 
 174:Core/Src/stm32g0xx_hal_msp.c ****     /* ADC1 interrupt DeInit */
 175:Core/Src/stm32g0xx_hal_msp.c ****     HAL_NVIC_DisableIRQ(ADC1_IRQn);
 176:Core/Src/stm32g0xx_hal_msp.c ****   /* USER CODE BEGIN ADC1_MspDeInit 1 */
 177:Core/Src/stm32g0xx_hal_msp.c **** 
 178:Core/Src/stm32g0xx_hal_msp.c ****   /* USER CODE END ADC1_MspDeInit 1 */
 179:Core/Src/stm32g0xx_hal_msp.c ****   }
 180:Core/Src/stm32g0xx_hal_msp.c **** 
 181:Core/Src/stm32g0xx_hal_msp.c **** }
 313              		.loc 1 181 1 view .LVU84
 314              		@ sp needed
 315              	.LVL15:
 316              		.loc 1 181 1 view .LVU85
 317 000c 10BD     		pop	{r4, pc}
 318              	.LVL16:
 319              	.L15:
 163:Core/Src/stm32g0xx_hal_msp.c **** 
 320              		.loc 1 163 5 is_stmt 1 view .LVU86
 321 000e 094A     		ldr	r2, .L16+4
 322 0010 136C     		ldr	r3, [r2, #64]
 323 0012 0949     		ldr	r1, .L16+8
 324 0014 0B40     		ands	r3, r1
 325 0016 1364     		str	r3, [r2, #64]
 169:Core/Src/stm32g0xx_hal_msp.c **** 
 326              		.loc 1 169 5 view .LVU87
 327 0018 A020     		movs	r0, #160
 328              	.LVL17:
 169:Core/Src/stm32g0xx_hal_msp.c **** 
 329              		.loc 1 169 5 is_stmt 0 view .LVU88
 330 001a 0321     		movs	r1, #3
 331 001c C005     		lsls	r0, r0, #23
 332 001e FFF7FEFF 		bl	HAL_GPIO_DeInit
 333              	.LVL18:
 172:Core/Src/stm32g0xx_hal_msp.c **** 
 334              		.loc 1 172 5 is_stmt 1 view .LVU89
 335 0022 206D     		ldr	r0, [r4, #80]
 336 0024 FFF7FEFF 		bl	HAL_DMA_DeInit
ARM GAS  C:\Users\tugru\AppData\Local\Temp\ccI2jYbD.s 			page 11


 337              	.LVL19:
 175:Core/Src/stm32g0xx_hal_msp.c ****   /* USER CODE BEGIN ADC1_MspDeInit 1 */
 338              		.loc 1 175 5 view .LVU90
 339 0028 0C20     		movs	r0, #12
 340 002a FFF7FEFF 		bl	HAL_NVIC_DisableIRQ
 341              	.LVL20:
 342              		.loc 1 181 1 is_stmt 0 view .LVU91
 343 002e EDE7     		b	.L13
 344              	.L17:
 345              		.align	2
 346              	.L16:
 347 0030 00240140 		.word	1073816576
 348 0034 00100240 		.word	1073876992
 349 0038 FFFFEFFF 		.word	-1048577
 350              		.cfi_endproc
 351              	.LFE445:
 353              		.section	.text.HAL_SPI_MspInit,"ax",%progbits
 354              		.align	1
 355              		.global	HAL_SPI_MspInit
 356              		.syntax unified
 357              		.code	16
 358              		.thumb_func
 360              	HAL_SPI_MspInit:
 361              	.LVL21:
 362              	.LFB446:
 182:Core/Src/stm32g0xx_hal_msp.c **** 
 183:Core/Src/stm32g0xx_hal_msp.c **** /**
 184:Core/Src/stm32g0xx_hal_msp.c **** * @brief SPI MSP Initialization
 185:Core/Src/stm32g0xx_hal_msp.c **** * This function configures the hardware resources used in this example
 186:Core/Src/stm32g0xx_hal_msp.c **** * @param hspi: SPI handle pointer
 187:Core/Src/stm32g0xx_hal_msp.c **** * @retval None
 188:Core/Src/stm32g0xx_hal_msp.c **** */
 189:Core/Src/stm32g0xx_hal_msp.c **** void HAL_SPI_MspInit(SPI_HandleTypeDef* hspi)
 190:Core/Src/stm32g0xx_hal_msp.c **** {
 363              		.loc 1 190 1 is_stmt 1 view -0
 364              		.cfi_startproc
 365              		@ args = 0, pretend = 0, frame = 32
 366              		@ frame_needed = 0, uses_anonymous_args = 0
 367              		.loc 1 190 1 is_stmt 0 view .LVU93
 368 0000 70B5     		push	{r4, r5, r6, lr}
 369              	.LCFI4:
 370              		.cfi_def_cfa_offset 16
 371              		.cfi_offset 4, -16
 372              		.cfi_offset 5, -12
 373              		.cfi_offset 6, -8
 374              		.cfi_offset 14, -4
 375 0002 88B0     		sub	sp, sp, #32
 376              	.LCFI5:
 377              		.cfi_def_cfa_offset 48
 378 0004 0400     		movs	r4, r0
 191:Core/Src/stm32g0xx_hal_msp.c ****   GPIO_InitTypeDef GPIO_InitStruct = {0};
 379              		.loc 1 191 3 is_stmt 1 view .LVU94
 380              		.loc 1 191 20 is_stmt 0 view .LVU95
 381 0006 1422     		movs	r2, #20
 382 0008 0021     		movs	r1, #0
 383 000a 03A8     		add	r0, sp, #12
 384              	.LVL22:
ARM GAS  C:\Users\tugru\AppData\Local\Temp\ccI2jYbD.s 			page 12


 385              		.loc 1 191 20 view .LVU96
 386 000c FFF7FEFF 		bl	memset
 387              	.LVL23:
 192:Core/Src/stm32g0xx_hal_msp.c ****   if(hspi->Instance==SPI2)
 388              		.loc 1 192 3 is_stmt 1 view .LVU97
 389              		.loc 1 192 10 is_stmt 0 view .LVU98
 390 0010 2268     		ldr	r2, [r4]
 391              		.loc 1 192 5 view .LVU99
 392 0012 214B     		ldr	r3, .L21
 393 0014 9A42     		cmp	r2, r3
 394 0016 01D0     		beq	.L20
 395              	.LVL24:
 396              	.L18:
 193:Core/Src/stm32g0xx_hal_msp.c ****   {
 194:Core/Src/stm32g0xx_hal_msp.c ****   /* USER CODE BEGIN SPI2_MspInit 0 */
 195:Core/Src/stm32g0xx_hal_msp.c **** 
 196:Core/Src/stm32g0xx_hal_msp.c ****   /* USER CODE END SPI2_MspInit 0 */
 197:Core/Src/stm32g0xx_hal_msp.c ****     /* Peripheral clock enable */
 198:Core/Src/stm32g0xx_hal_msp.c ****     __HAL_RCC_SPI2_CLK_ENABLE();
 199:Core/Src/stm32g0xx_hal_msp.c **** 
 200:Core/Src/stm32g0xx_hal_msp.c ****     __HAL_RCC_GPIOC_CLK_ENABLE();
 201:Core/Src/stm32g0xx_hal_msp.c ****     __HAL_RCC_GPIOB_CLK_ENABLE();
 202:Core/Src/stm32g0xx_hal_msp.c ****     /**SPI2 GPIO Configuration
 203:Core/Src/stm32g0xx_hal_msp.c ****     PC2     ------> SPI2_MISO
 204:Core/Src/stm32g0xx_hal_msp.c ****     PC3     ------> SPI2_MOSI
 205:Core/Src/stm32g0xx_hal_msp.c ****     PB10     ------> SPI2_SCK
 206:Core/Src/stm32g0xx_hal_msp.c ****     PB12     ------> SPI2_NSS
 207:Core/Src/stm32g0xx_hal_msp.c ****     */
 208:Core/Src/stm32g0xx_hal_msp.c ****     GPIO_InitStruct.Pin = GPIO_PIN_2|GPIO_PIN_3;
 209:Core/Src/stm32g0xx_hal_msp.c ****     GPIO_InitStruct.Mode = GPIO_MODE_AF_PP;
 210:Core/Src/stm32g0xx_hal_msp.c ****     GPIO_InitStruct.Pull = GPIO_NOPULL;
 211:Core/Src/stm32g0xx_hal_msp.c ****     GPIO_InitStruct.Speed = GPIO_SPEED_FREQ_LOW;
 212:Core/Src/stm32g0xx_hal_msp.c ****     GPIO_InitStruct.Alternate = GPIO_AF1_SPI2;
 213:Core/Src/stm32g0xx_hal_msp.c ****     HAL_GPIO_Init(GPIOC, &GPIO_InitStruct);
 214:Core/Src/stm32g0xx_hal_msp.c **** 
 215:Core/Src/stm32g0xx_hal_msp.c ****     GPIO_InitStruct.Pin = GPIO_PIN_10;
 216:Core/Src/stm32g0xx_hal_msp.c ****     GPIO_InitStruct.Mode = GPIO_MODE_AF_PP;
 217:Core/Src/stm32g0xx_hal_msp.c ****     GPIO_InitStruct.Pull = GPIO_NOPULL;
 218:Core/Src/stm32g0xx_hal_msp.c ****     GPIO_InitStruct.Speed = GPIO_SPEED_FREQ_LOW;
 219:Core/Src/stm32g0xx_hal_msp.c ****     GPIO_InitStruct.Alternate = GPIO_AF5_SPI2;
 220:Core/Src/stm32g0xx_hal_msp.c ****     HAL_GPIO_Init(GPIOB, &GPIO_InitStruct);
 221:Core/Src/stm32g0xx_hal_msp.c **** 
 222:Core/Src/stm32g0xx_hal_msp.c ****     GPIO_InitStruct.Pin = GPIO_PIN_12;
 223:Core/Src/stm32g0xx_hal_msp.c ****     GPIO_InitStruct.Mode = GPIO_MODE_AF_PP;
 224:Core/Src/stm32g0xx_hal_msp.c ****     GPIO_InitStruct.Pull = GPIO_NOPULL;
 225:Core/Src/stm32g0xx_hal_msp.c ****     GPIO_InitStruct.Speed = GPIO_SPEED_FREQ_LOW;
 226:Core/Src/stm32g0xx_hal_msp.c ****     GPIO_InitStruct.Alternate = GPIO_AF0_SPI2;
 227:Core/Src/stm32g0xx_hal_msp.c ****     HAL_GPIO_Init(GPIOB, &GPIO_InitStruct);
 228:Core/Src/stm32g0xx_hal_msp.c **** 
 229:Core/Src/stm32g0xx_hal_msp.c ****   /* USER CODE BEGIN SPI2_MspInit 1 */
 230:Core/Src/stm32g0xx_hal_msp.c **** 
 231:Core/Src/stm32g0xx_hal_msp.c ****   /* USER CODE END SPI2_MspInit 1 */
 232:Core/Src/stm32g0xx_hal_msp.c **** 
 233:Core/Src/stm32g0xx_hal_msp.c ****   }
 234:Core/Src/stm32g0xx_hal_msp.c **** 
 235:Core/Src/stm32g0xx_hal_msp.c **** }
 397              		.loc 1 235 1 view .LVU100
ARM GAS  C:\Users\tugru\AppData\Local\Temp\ccI2jYbD.s 			page 13


 398 0018 08B0     		add	sp, sp, #32
 399              		@ sp needed
 400 001a 70BD     		pop	{r4, r5, r6, pc}
 401              	.LVL25:
 402              	.L20:
 198:Core/Src/stm32g0xx_hal_msp.c **** 
 403              		.loc 1 198 5 is_stmt 1 view .LVU101
 404              	.LBB6:
 198:Core/Src/stm32g0xx_hal_msp.c **** 
 405              		.loc 1 198 5 view .LVU102
 198:Core/Src/stm32g0xx_hal_msp.c **** 
 406              		.loc 1 198 5 view .LVU103
 407 001c 1F4B     		ldr	r3, .L21+4
 408 001e D96B     		ldr	r1, [r3, #60]
 409 0020 8020     		movs	r0, #128
 410 0022 C001     		lsls	r0, r0, #7
 411 0024 0143     		orrs	r1, r0
 412 0026 D963     		str	r1, [r3, #60]
 198:Core/Src/stm32g0xx_hal_msp.c **** 
 413              		.loc 1 198 5 view .LVU104
 414 0028 DA6B     		ldr	r2, [r3, #60]
 415 002a 0240     		ands	r2, r0
 416 002c 0092     		str	r2, [sp]
 198:Core/Src/stm32g0xx_hal_msp.c **** 
 417              		.loc 1 198 5 view .LVU105
 418 002e 009A     		ldr	r2, [sp]
 419              	.LBE6:
 198:Core/Src/stm32g0xx_hal_msp.c **** 
 420              		.loc 1 198 5 view .LVU106
 200:Core/Src/stm32g0xx_hal_msp.c ****     __HAL_RCC_GPIOB_CLK_ENABLE();
 421              		.loc 1 200 5 view .LVU107
 422              	.LBB7:
 200:Core/Src/stm32g0xx_hal_msp.c ****     __HAL_RCC_GPIOB_CLK_ENABLE();
 423              		.loc 1 200 5 view .LVU108
 200:Core/Src/stm32g0xx_hal_msp.c ****     __HAL_RCC_GPIOB_CLK_ENABLE();
 424              		.loc 1 200 5 view .LVU109
 425 0030 596B     		ldr	r1, [r3, #52]
 426 0032 0422     		movs	r2, #4
 427 0034 1143     		orrs	r1, r2
 428 0036 5963     		str	r1, [r3, #52]
 200:Core/Src/stm32g0xx_hal_msp.c ****     __HAL_RCC_GPIOB_CLK_ENABLE();
 429              		.loc 1 200 5 view .LVU110
 430 0038 596B     		ldr	r1, [r3, #52]
 431 003a 0A40     		ands	r2, r1
 432 003c 0192     		str	r2, [sp, #4]
 200:Core/Src/stm32g0xx_hal_msp.c ****     __HAL_RCC_GPIOB_CLK_ENABLE();
 433              		.loc 1 200 5 view .LVU111
 434 003e 019A     		ldr	r2, [sp, #4]
 435              	.LBE7:
 200:Core/Src/stm32g0xx_hal_msp.c ****     __HAL_RCC_GPIOB_CLK_ENABLE();
 436              		.loc 1 200 5 view .LVU112
 201:Core/Src/stm32g0xx_hal_msp.c ****     /**SPI2 GPIO Configuration
 437              		.loc 1 201 5 view .LVU113
 438              	.LBB8:
 201:Core/Src/stm32g0xx_hal_msp.c ****     /**SPI2 GPIO Configuration
 439              		.loc 1 201 5 view .LVU114
 201:Core/Src/stm32g0xx_hal_msp.c ****     /**SPI2 GPIO Configuration
ARM GAS  C:\Users\tugru\AppData\Local\Temp\ccI2jYbD.s 			page 14


 440              		.loc 1 201 5 view .LVU115
 441 0040 5A6B     		ldr	r2, [r3, #52]
 442 0042 0225     		movs	r5, #2
 443 0044 2A43     		orrs	r2, r5
 444 0046 5A63     		str	r2, [r3, #52]
 201:Core/Src/stm32g0xx_hal_msp.c ****     /**SPI2 GPIO Configuration
 445              		.loc 1 201 5 view .LVU116
 446 0048 5B6B     		ldr	r3, [r3, #52]
 447 004a 2B40     		ands	r3, r5
 448 004c 0293     		str	r3, [sp, #8]
 201:Core/Src/stm32g0xx_hal_msp.c ****     /**SPI2 GPIO Configuration
 449              		.loc 1 201 5 view .LVU117
 450 004e 029B     		ldr	r3, [sp, #8]
 451              	.LBE8:
 201:Core/Src/stm32g0xx_hal_msp.c ****     /**SPI2 GPIO Configuration
 452              		.loc 1 201 5 view .LVU118
 208:Core/Src/stm32g0xx_hal_msp.c ****     GPIO_InitStruct.Mode = GPIO_MODE_AF_PP;
 453              		.loc 1 208 5 view .LVU119
 208:Core/Src/stm32g0xx_hal_msp.c ****     GPIO_InitStruct.Mode = GPIO_MODE_AF_PP;
 454              		.loc 1 208 25 is_stmt 0 view .LVU120
 455 0050 0C23     		movs	r3, #12
 456 0052 0393     		str	r3, [sp, #12]
 209:Core/Src/stm32g0xx_hal_msp.c ****     GPIO_InitStruct.Pull = GPIO_NOPULL;
 457              		.loc 1 209 5 is_stmt 1 view .LVU121
 209:Core/Src/stm32g0xx_hal_msp.c ****     GPIO_InitStruct.Pull = GPIO_NOPULL;
 458              		.loc 1 209 26 is_stmt 0 view .LVU122
 459 0054 0495     		str	r5, [sp, #16]
 210:Core/Src/stm32g0xx_hal_msp.c ****     GPIO_InitStruct.Speed = GPIO_SPEED_FREQ_LOW;
 460              		.loc 1 210 5 is_stmt 1 view .LVU123
 211:Core/Src/stm32g0xx_hal_msp.c ****     GPIO_InitStruct.Alternate = GPIO_AF1_SPI2;
 461              		.loc 1 211 5 view .LVU124
 212:Core/Src/stm32g0xx_hal_msp.c ****     HAL_GPIO_Init(GPIOC, &GPIO_InitStruct);
 462              		.loc 1 212 5 view .LVU125
 212:Core/Src/stm32g0xx_hal_msp.c ****     HAL_GPIO_Init(GPIOC, &GPIO_InitStruct);
 463              		.loc 1 212 31 is_stmt 0 view .LVU126
 464 0056 0B3B     		subs	r3, r3, #11
 465 0058 0793     		str	r3, [sp, #28]
 213:Core/Src/stm32g0xx_hal_msp.c **** 
 466              		.loc 1 213 5 is_stmt 1 view .LVU127
 467 005a 03A9     		add	r1, sp, #12
 468 005c 1048     		ldr	r0, .L21+8
 469 005e FFF7FEFF 		bl	HAL_GPIO_Init
 470              	.LVL26:
 215:Core/Src/stm32g0xx_hal_msp.c ****     GPIO_InitStruct.Mode = GPIO_MODE_AF_PP;
 471              		.loc 1 215 5 view .LVU128
 215:Core/Src/stm32g0xx_hal_msp.c ****     GPIO_InitStruct.Mode = GPIO_MODE_AF_PP;
 472              		.loc 1 215 25 is_stmt 0 view .LVU129
 473 0062 8023     		movs	r3, #128
 474 0064 DB00     		lsls	r3, r3, #3
 475 0066 0393     		str	r3, [sp, #12]
 216:Core/Src/stm32g0xx_hal_msp.c ****     GPIO_InitStruct.Pull = GPIO_NOPULL;
 476              		.loc 1 216 5 is_stmt 1 view .LVU130
 216:Core/Src/stm32g0xx_hal_msp.c ****     GPIO_InitStruct.Pull = GPIO_NOPULL;
 477              		.loc 1 216 26 is_stmt 0 view .LVU131
 478 0068 0495     		str	r5, [sp, #16]
 217:Core/Src/stm32g0xx_hal_msp.c ****     GPIO_InitStruct.Speed = GPIO_SPEED_FREQ_LOW;
 479              		.loc 1 217 5 is_stmt 1 view .LVU132
ARM GAS  C:\Users\tugru\AppData\Local\Temp\ccI2jYbD.s 			page 15


 217:Core/Src/stm32g0xx_hal_msp.c ****     GPIO_InitStruct.Speed = GPIO_SPEED_FREQ_LOW;
 480              		.loc 1 217 26 is_stmt 0 view .LVU133
 481 006a 0024     		movs	r4, #0
 482              	.LVL27:
 217:Core/Src/stm32g0xx_hal_msp.c ****     GPIO_InitStruct.Speed = GPIO_SPEED_FREQ_LOW;
 483              		.loc 1 217 26 view .LVU134
 484 006c 0594     		str	r4, [sp, #20]
 218:Core/Src/stm32g0xx_hal_msp.c ****     GPIO_InitStruct.Alternate = GPIO_AF5_SPI2;
 485              		.loc 1 218 5 is_stmt 1 view .LVU135
 218:Core/Src/stm32g0xx_hal_msp.c ****     GPIO_InitStruct.Alternate = GPIO_AF5_SPI2;
 486              		.loc 1 218 27 is_stmt 0 view .LVU136
 487 006e 0694     		str	r4, [sp, #24]
 219:Core/Src/stm32g0xx_hal_msp.c ****     HAL_GPIO_Init(GPIOB, &GPIO_InitStruct);
 488              		.loc 1 219 5 is_stmt 1 view .LVU137
 219:Core/Src/stm32g0xx_hal_msp.c ****     HAL_GPIO_Init(GPIOB, &GPIO_InitStruct);
 489              		.loc 1 219 31 is_stmt 0 view .LVU138
 490 0070 0523     		movs	r3, #5
 491 0072 0793     		str	r3, [sp, #28]
 220:Core/Src/stm32g0xx_hal_msp.c **** 
 492              		.loc 1 220 5 is_stmt 1 view .LVU139
 493 0074 0B4E     		ldr	r6, .L21+12
 494 0076 03A9     		add	r1, sp, #12
 495 0078 3000     		movs	r0, r6
 496 007a FFF7FEFF 		bl	HAL_GPIO_Init
 497              	.LVL28:
 222:Core/Src/stm32g0xx_hal_msp.c ****     GPIO_InitStruct.Mode = GPIO_MODE_AF_PP;
 498              		.loc 1 222 5 view .LVU140
 222:Core/Src/stm32g0xx_hal_msp.c ****     GPIO_InitStruct.Mode = GPIO_MODE_AF_PP;
 499              		.loc 1 222 25 is_stmt 0 view .LVU141
 500 007e 8023     		movs	r3, #128
 501 0080 5B01     		lsls	r3, r3, #5
 502 0082 0393     		str	r3, [sp, #12]
 223:Core/Src/stm32g0xx_hal_msp.c ****     GPIO_InitStruct.Pull = GPIO_NOPULL;
 503              		.loc 1 223 5 is_stmt 1 view .LVU142
 223:Core/Src/stm32g0xx_hal_msp.c ****     GPIO_InitStruct.Pull = GPIO_NOPULL;
 504              		.loc 1 223 26 is_stmt 0 view .LVU143
 505 0084 0495     		str	r5, [sp, #16]
 224:Core/Src/stm32g0xx_hal_msp.c ****     GPIO_InitStruct.Speed = GPIO_SPEED_FREQ_LOW;
 506              		.loc 1 224 5 is_stmt 1 view .LVU144
 224:Core/Src/stm32g0xx_hal_msp.c ****     GPIO_InitStruct.Speed = GPIO_SPEED_FREQ_LOW;
 507              		.loc 1 224 26 is_stmt 0 view .LVU145
 508 0086 0594     		str	r4, [sp, #20]
 225:Core/Src/stm32g0xx_hal_msp.c ****     GPIO_InitStruct.Alternate = GPIO_AF0_SPI2;
 509              		.loc 1 225 5 is_stmt 1 view .LVU146
 225:Core/Src/stm32g0xx_hal_msp.c ****     GPIO_InitStruct.Alternate = GPIO_AF0_SPI2;
 510              		.loc 1 225 27 is_stmt 0 view .LVU147
 511 0088 0694     		str	r4, [sp, #24]
 226:Core/Src/stm32g0xx_hal_msp.c ****     HAL_GPIO_Init(GPIOB, &GPIO_InitStruct);
 512              		.loc 1 226 5 is_stmt 1 view .LVU148
 226:Core/Src/stm32g0xx_hal_msp.c ****     HAL_GPIO_Init(GPIOB, &GPIO_InitStruct);
 513              		.loc 1 226 31 is_stmt 0 view .LVU149
 514 008a 0794     		str	r4, [sp, #28]
 227:Core/Src/stm32g0xx_hal_msp.c **** 
 515              		.loc 1 227 5 is_stmt 1 view .LVU150
 516 008c 03A9     		add	r1, sp, #12
 517 008e 3000     		movs	r0, r6
 518 0090 FFF7FEFF 		bl	HAL_GPIO_Init
ARM GAS  C:\Users\tugru\AppData\Local\Temp\ccI2jYbD.s 			page 16


 519              	.LVL29:
 520              		.loc 1 235 1 is_stmt 0 view .LVU151
 521 0094 C0E7     		b	.L18
 522              	.L22:
 523 0096 C046     		.align	2
 524              	.L21:
 525 0098 00380040 		.word	1073756160
 526 009c 00100240 		.word	1073876992
 527 00a0 00080050 		.word	1342179328
 528 00a4 00040050 		.word	1342178304
 529              		.cfi_endproc
 530              	.LFE446:
 532              		.section	.text.HAL_SPI_MspDeInit,"ax",%progbits
 533              		.align	1
 534              		.global	HAL_SPI_MspDeInit
 535              		.syntax unified
 536              		.code	16
 537              		.thumb_func
 539              	HAL_SPI_MspDeInit:
 540              	.LVL30:
 541              	.LFB447:
 236:Core/Src/stm32g0xx_hal_msp.c **** 
 237:Core/Src/stm32g0xx_hal_msp.c **** /**
 238:Core/Src/stm32g0xx_hal_msp.c **** * @brief SPI MSP De-Initialization
 239:Core/Src/stm32g0xx_hal_msp.c **** * This function freeze the hardware resources used in this example
 240:Core/Src/stm32g0xx_hal_msp.c **** * @param hspi: SPI handle pointer
 241:Core/Src/stm32g0xx_hal_msp.c **** * @retval None
 242:Core/Src/stm32g0xx_hal_msp.c **** */
 243:Core/Src/stm32g0xx_hal_msp.c **** void HAL_SPI_MspDeInit(SPI_HandleTypeDef* hspi)
 244:Core/Src/stm32g0xx_hal_msp.c **** {
 542              		.loc 1 244 1 is_stmt 1 view -0
 543              		.cfi_startproc
 544              		@ args = 0, pretend = 0, frame = 0
 545              		@ frame_needed = 0, uses_anonymous_args = 0
 546              		.loc 1 244 1 is_stmt 0 view .LVU153
 547 0000 10B5     		push	{r4, lr}
 548              	.LCFI6:
 549              		.cfi_def_cfa_offset 8
 550              		.cfi_offset 4, -8
 551              		.cfi_offset 14, -4
 245:Core/Src/stm32g0xx_hal_msp.c ****   if(hspi->Instance==SPI2)
 552              		.loc 1 245 3 is_stmt 1 view .LVU154
 553              		.loc 1 245 10 is_stmt 0 view .LVU155
 554 0002 0268     		ldr	r2, [r0]
 555              		.loc 1 245 5 view .LVU156
 556 0004 094B     		ldr	r3, .L26
 557 0006 9A42     		cmp	r2, r3
 558 0008 00D0     		beq	.L25
 559              	.LVL31:
 560              	.L23:
 246:Core/Src/stm32g0xx_hal_msp.c ****   {
 247:Core/Src/stm32g0xx_hal_msp.c ****   /* USER CODE BEGIN SPI2_MspDeInit 0 */
 248:Core/Src/stm32g0xx_hal_msp.c **** 
 249:Core/Src/stm32g0xx_hal_msp.c ****   /* USER CODE END SPI2_MspDeInit 0 */
 250:Core/Src/stm32g0xx_hal_msp.c ****     /* Peripheral clock disable */
 251:Core/Src/stm32g0xx_hal_msp.c ****     __HAL_RCC_SPI2_CLK_DISABLE();
 252:Core/Src/stm32g0xx_hal_msp.c **** 
ARM GAS  C:\Users\tugru\AppData\Local\Temp\ccI2jYbD.s 			page 17


 253:Core/Src/stm32g0xx_hal_msp.c ****     /**SPI2 GPIO Configuration
 254:Core/Src/stm32g0xx_hal_msp.c ****     PC2     ------> SPI2_MISO
 255:Core/Src/stm32g0xx_hal_msp.c ****     PC3     ------> SPI2_MOSI
 256:Core/Src/stm32g0xx_hal_msp.c ****     PB10     ------> SPI2_SCK
 257:Core/Src/stm32g0xx_hal_msp.c ****     PB12     ------> SPI2_NSS
 258:Core/Src/stm32g0xx_hal_msp.c ****     */
 259:Core/Src/stm32g0xx_hal_msp.c ****     HAL_GPIO_DeInit(GPIOC, GPIO_PIN_2|GPIO_PIN_3);
 260:Core/Src/stm32g0xx_hal_msp.c **** 
 261:Core/Src/stm32g0xx_hal_msp.c ****     HAL_GPIO_DeInit(GPIOB, GPIO_PIN_10|GPIO_PIN_12);
 262:Core/Src/stm32g0xx_hal_msp.c **** 
 263:Core/Src/stm32g0xx_hal_msp.c ****   /* USER CODE BEGIN SPI2_MspDeInit 1 */
 264:Core/Src/stm32g0xx_hal_msp.c **** 
 265:Core/Src/stm32g0xx_hal_msp.c ****   /* USER CODE END SPI2_MspDeInit 1 */
 266:Core/Src/stm32g0xx_hal_msp.c ****   }
 267:Core/Src/stm32g0xx_hal_msp.c **** 
 268:Core/Src/stm32g0xx_hal_msp.c **** }
 561              		.loc 1 268 1 view .LVU157
 562              		@ sp needed
 563 000a 10BD     		pop	{r4, pc}
 564              	.LVL32:
 565              	.L25:
 251:Core/Src/stm32g0xx_hal_msp.c **** 
 566              		.loc 1 251 5 is_stmt 1 view .LVU158
 567 000c 084A     		ldr	r2, .L26+4
 568 000e D36B     		ldr	r3, [r2, #60]
 569 0010 0849     		ldr	r1, .L26+8
 570 0012 0B40     		ands	r3, r1
 571 0014 D363     		str	r3, [r2, #60]
 259:Core/Src/stm32g0xx_hal_msp.c **** 
 572              		.loc 1 259 5 view .LVU159
 573 0016 0C21     		movs	r1, #12
 574 0018 0748     		ldr	r0, .L26+12
 575              	.LVL33:
 259:Core/Src/stm32g0xx_hal_msp.c **** 
 576              		.loc 1 259 5 is_stmt 0 view .LVU160
 577 001a FFF7FEFF 		bl	HAL_GPIO_DeInit
 578              	.LVL34:
 261:Core/Src/stm32g0xx_hal_msp.c **** 
 579              		.loc 1 261 5 is_stmt 1 view .LVU161
 580 001e A021     		movs	r1, #160
 581 0020 4901     		lsls	r1, r1, #5
 582 0022 0648     		ldr	r0, .L26+16
 583 0024 FFF7FEFF 		bl	HAL_GPIO_DeInit
 584              	.LVL35:
 585              		.loc 1 268 1 is_stmt 0 view .LVU162
 586 0028 EFE7     		b	.L23
 587              	.L27:
 588 002a C046     		.align	2
 589              	.L26:
 590 002c 00380040 		.word	1073756160
 591 0030 00100240 		.word	1073876992
 592 0034 FFBFFFFF 		.word	-16385
 593 0038 00080050 		.word	1342179328
 594 003c 00040050 		.word	1342178304
 595              		.cfi_endproc
 596              	.LFE447:
 598              		.section	.text.HAL_UART_MspInit,"ax",%progbits
ARM GAS  C:\Users\tugru\AppData\Local\Temp\ccI2jYbD.s 			page 18


 599              		.align	1
 600              		.global	HAL_UART_MspInit
 601              		.syntax unified
 602              		.code	16
 603              		.thumb_func
 605              	HAL_UART_MspInit:
 606              	.LVL36:
 607              	.LFB448:
 269:Core/Src/stm32g0xx_hal_msp.c **** 
 270:Core/Src/stm32g0xx_hal_msp.c **** /**
 271:Core/Src/stm32g0xx_hal_msp.c **** * @brief UART MSP Initialization
 272:Core/Src/stm32g0xx_hal_msp.c **** * This function configures the hardware resources used in this example
 273:Core/Src/stm32g0xx_hal_msp.c **** * @param huart: UART handle pointer
 274:Core/Src/stm32g0xx_hal_msp.c **** * @retval None
 275:Core/Src/stm32g0xx_hal_msp.c **** */
 276:Core/Src/stm32g0xx_hal_msp.c **** void HAL_UART_MspInit(UART_HandleTypeDef* huart)
 277:Core/Src/stm32g0xx_hal_msp.c **** {
 608              		.loc 1 277 1 is_stmt 1 view -0
 609              		.cfi_startproc
 610              		@ args = 0, pretend = 0, frame = 56
 611              		@ frame_needed = 0, uses_anonymous_args = 0
 612              		.loc 1 277 1 is_stmt 0 view .LVU164
 613 0000 10B5     		push	{r4, lr}
 614              	.LCFI7:
 615              		.cfi_def_cfa_offset 8
 616              		.cfi_offset 4, -8
 617              		.cfi_offset 14, -4
 618 0002 8EB0     		sub	sp, sp, #56
 619              	.LCFI8:
 620              		.cfi_def_cfa_offset 64
 621 0004 0400     		movs	r4, r0
 278:Core/Src/stm32g0xx_hal_msp.c ****   GPIO_InitTypeDef GPIO_InitStruct = {0};
 622              		.loc 1 278 3 is_stmt 1 view .LVU165
 623              		.loc 1 278 20 is_stmt 0 view .LVU166
 624 0006 1422     		movs	r2, #20
 625 0008 0021     		movs	r1, #0
 626 000a 09A8     		add	r0, sp, #36
 627              	.LVL37:
 628              		.loc 1 278 20 view .LVU167
 629 000c FFF7FEFF 		bl	memset
 630              	.LVL38:
 279:Core/Src/stm32g0xx_hal_msp.c ****   RCC_PeriphCLKInitTypeDef PeriphClkInit = {0};
 631              		.loc 1 279 3 is_stmt 1 view .LVU168
 632              		.loc 1 279 28 is_stmt 0 view .LVU169
 633 0010 1C22     		movs	r2, #28
 634 0012 0021     		movs	r1, #0
 635 0014 02A8     		add	r0, sp, #8
 636 0016 FFF7FEFF 		bl	memset
 637              	.LVL39:
 280:Core/Src/stm32g0xx_hal_msp.c ****   if(huart->Instance==USART2)
 638              		.loc 1 280 3 is_stmt 1 view .LVU170
 639              		.loc 1 280 11 is_stmt 0 view .LVU171
 640 001a 2268     		ldr	r2, [r4]
 641              		.loc 1 280 5 view .LVU172
 642 001c 174B     		ldr	r3, .L33
 643 001e 9A42     		cmp	r2, r3
 644 0020 01D0     		beq	.L31
ARM GAS  C:\Users\tugru\AppData\Local\Temp\ccI2jYbD.s 			page 19


 645              	.L28:
 281:Core/Src/stm32g0xx_hal_msp.c ****   {
 282:Core/Src/stm32g0xx_hal_msp.c ****   /* USER CODE BEGIN USART2_MspInit 0 */
 283:Core/Src/stm32g0xx_hal_msp.c **** 
 284:Core/Src/stm32g0xx_hal_msp.c ****   /* USER CODE END USART2_MspInit 0 */
 285:Core/Src/stm32g0xx_hal_msp.c **** 
 286:Core/Src/stm32g0xx_hal_msp.c ****   /** Initializes the peripherals clocks
 287:Core/Src/stm32g0xx_hal_msp.c ****   */
 288:Core/Src/stm32g0xx_hal_msp.c ****     PeriphClkInit.PeriphClockSelection = RCC_PERIPHCLK_USART2;
 289:Core/Src/stm32g0xx_hal_msp.c ****     PeriphClkInit.Usart2ClockSelection = RCC_USART2CLKSOURCE_PCLK1;
 290:Core/Src/stm32g0xx_hal_msp.c ****     if (HAL_RCCEx_PeriphCLKConfig(&PeriphClkInit) != HAL_OK)
 291:Core/Src/stm32g0xx_hal_msp.c ****     {
 292:Core/Src/stm32g0xx_hal_msp.c ****       Error_Handler();
 293:Core/Src/stm32g0xx_hal_msp.c ****     }
 294:Core/Src/stm32g0xx_hal_msp.c **** 
 295:Core/Src/stm32g0xx_hal_msp.c ****     /* Peripheral clock enable */
 296:Core/Src/stm32g0xx_hal_msp.c ****     __HAL_RCC_USART2_CLK_ENABLE();
 297:Core/Src/stm32g0xx_hal_msp.c **** 
 298:Core/Src/stm32g0xx_hal_msp.c ****     __HAL_RCC_GPIOA_CLK_ENABLE();
 299:Core/Src/stm32g0xx_hal_msp.c ****     /**USART2 GPIO Configuration
 300:Core/Src/stm32g0xx_hal_msp.c ****     PA2     ------> USART2_TX
 301:Core/Src/stm32g0xx_hal_msp.c ****     PA3     ------> USART2_RX
 302:Core/Src/stm32g0xx_hal_msp.c ****     */
 303:Core/Src/stm32g0xx_hal_msp.c ****     GPIO_InitStruct.Pin = GPIO_PIN_2|GPIO_PIN_3;
 304:Core/Src/stm32g0xx_hal_msp.c ****     GPIO_InitStruct.Mode = GPIO_MODE_AF_PP;
 305:Core/Src/stm32g0xx_hal_msp.c ****     GPIO_InitStruct.Pull = GPIO_PULLUP;
 306:Core/Src/stm32g0xx_hal_msp.c ****     GPIO_InitStruct.Speed = GPIO_SPEED_FREQ_LOW;
 307:Core/Src/stm32g0xx_hal_msp.c ****     GPIO_InitStruct.Alternate = GPIO_AF1_USART2;
 308:Core/Src/stm32g0xx_hal_msp.c ****     HAL_GPIO_Init(GPIOA, &GPIO_InitStruct);
 309:Core/Src/stm32g0xx_hal_msp.c **** 
 310:Core/Src/stm32g0xx_hal_msp.c ****   /* USER CODE BEGIN USART2_MspInit 1 */
 311:Core/Src/stm32g0xx_hal_msp.c **** 
 312:Core/Src/stm32g0xx_hal_msp.c ****   /* USER CODE END USART2_MspInit 1 */
 313:Core/Src/stm32g0xx_hal_msp.c **** 
 314:Core/Src/stm32g0xx_hal_msp.c ****   }
 315:Core/Src/stm32g0xx_hal_msp.c **** 
 316:Core/Src/stm32g0xx_hal_msp.c **** }
 646              		.loc 1 316 1 view .LVU173
 647 0022 0EB0     		add	sp, sp, #56
 648              		@ sp needed
 649              	.LVL40:
 650              		.loc 1 316 1 view .LVU174
 651 0024 10BD     		pop	{r4, pc}
 652              	.LVL41:
 653              	.L31:
 288:Core/Src/stm32g0xx_hal_msp.c ****     PeriphClkInit.Usart2ClockSelection = RCC_USART2CLKSOURCE_PCLK1;
 654              		.loc 1 288 5 is_stmt 1 view .LVU175
 288:Core/Src/stm32g0xx_hal_msp.c ****     PeriphClkInit.Usart2ClockSelection = RCC_USART2CLKSOURCE_PCLK1;
 655              		.loc 1 288 40 is_stmt 0 view .LVU176
 656 0026 0223     		movs	r3, #2
 657 0028 0293     		str	r3, [sp, #8]
 289:Core/Src/stm32g0xx_hal_msp.c ****     if (HAL_RCCEx_PeriphCLKConfig(&PeriphClkInit) != HAL_OK)
 658              		.loc 1 289 5 is_stmt 1 view .LVU177
 290:Core/Src/stm32g0xx_hal_msp.c ****     {
 659              		.loc 1 290 5 view .LVU178
 290:Core/Src/stm32g0xx_hal_msp.c ****     {
 660              		.loc 1 290 9 is_stmt 0 view .LVU179
ARM GAS  C:\Users\tugru\AppData\Local\Temp\ccI2jYbD.s 			page 20


 661 002a 02A8     		add	r0, sp, #8
 662 002c FFF7FEFF 		bl	HAL_RCCEx_PeriphCLKConfig
 663              	.LVL42:
 290:Core/Src/stm32g0xx_hal_msp.c ****     {
 664              		.loc 1 290 8 view .LVU180
 665 0030 0028     		cmp	r0, #0
 666 0032 1FD1     		bne	.L32
 667              	.L30:
 296:Core/Src/stm32g0xx_hal_msp.c **** 
 668              		.loc 1 296 5 is_stmt 1 view .LVU181
 669              	.LBB9:
 296:Core/Src/stm32g0xx_hal_msp.c **** 
 670              		.loc 1 296 5 view .LVU182
 296:Core/Src/stm32g0xx_hal_msp.c **** 
 671              		.loc 1 296 5 view .LVU183
 672 0034 124B     		ldr	r3, .L33+4
 673 0036 D96B     		ldr	r1, [r3, #60]
 674 0038 8020     		movs	r0, #128
 675 003a 8002     		lsls	r0, r0, #10
 676 003c 0143     		orrs	r1, r0
 677 003e D963     		str	r1, [r3, #60]
 296:Core/Src/stm32g0xx_hal_msp.c **** 
 678              		.loc 1 296 5 view .LVU184
 679 0040 DA6B     		ldr	r2, [r3, #60]
 680 0042 0240     		ands	r2, r0
 681 0044 0092     		str	r2, [sp]
 296:Core/Src/stm32g0xx_hal_msp.c **** 
 682              		.loc 1 296 5 view .LVU185
 683 0046 009A     		ldr	r2, [sp]
 684              	.LBE9:
 296:Core/Src/stm32g0xx_hal_msp.c **** 
 685              		.loc 1 296 5 view .LVU186
 298:Core/Src/stm32g0xx_hal_msp.c ****     /**USART2 GPIO Configuration
 686              		.loc 1 298 5 view .LVU187
 687              	.LBB10:
 298:Core/Src/stm32g0xx_hal_msp.c ****     /**USART2 GPIO Configuration
 688              		.loc 1 298 5 view .LVU188
 298:Core/Src/stm32g0xx_hal_msp.c ****     /**USART2 GPIO Configuration
 689              		.loc 1 298 5 view .LVU189
 690 0048 596B     		ldr	r1, [r3, #52]
 691 004a 0122     		movs	r2, #1
 692 004c 1143     		orrs	r1, r2
 693 004e 5963     		str	r1, [r3, #52]
 298:Core/Src/stm32g0xx_hal_msp.c ****     /**USART2 GPIO Configuration
 694              		.loc 1 298 5 view .LVU190
 695 0050 5B6B     		ldr	r3, [r3, #52]
 696 0052 1340     		ands	r3, r2
 697 0054 0193     		str	r3, [sp, #4]
 298:Core/Src/stm32g0xx_hal_msp.c ****     /**USART2 GPIO Configuration
 698              		.loc 1 298 5 view .LVU191
 699 0056 019B     		ldr	r3, [sp, #4]
 700              	.LBE10:
 298:Core/Src/stm32g0xx_hal_msp.c ****     /**USART2 GPIO Configuration
 701              		.loc 1 298 5 view .LVU192
 303:Core/Src/stm32g0xx_hal_msp.c ****     GPIO_InitStruct.Mode = GPIO_MODE_AF_PP;
 702              		.loc 1 303 5 view .LVU193
 303:Core/Src/stm32g0xx_hal_msp.c ****     GPIO_InitStruct.Mode = GPIO_MODE_AF_PP;
ARM GAS  C:\Users\tugru\AppData\Local\Temp\ccI2jYbD.s 			page 21


 703              		.loc 1 303 25 is_stmt 0 view .LVU194
 704 0058 0C23     		movs	r3, #12
 705 005a 0993     		str	r3, [sp, #36]
 304:Core/Src/stm32g0xx_hal_msp.c ****     GPIO_InitStruct.Pull = GPIO_PULLUP;
 706              		.loc 1 304 5 is_stmt 1 view .LVU195
 304:Core/Src/stm32g0xx_hal_msp.c ****     GPIO_InitStruct.Pull = GPIO_PULLUP;
 707              		.loc 1 304 26 is_stmt 0 view .LVU196
 708 005c 0A3B     		subs	r3, r3, #10
 709 005e 0A93     		str	r3, [sp, #40]
 305:Core/Src/stm32g0xx_hal_msp.c ****     GPIO_InitStruct.Speed = GPIO_SPEED_FREQ_LOW;
 710              		.loc 1 305 5 is_stmt 1 view .LVU197
 305:Core/Src/stm32g0xx_hal_msp.c ****     GPIO_InitStruct.Speed = GPIO_SPEED_FREQ_LOW;
 711              		.loc 1 305 26 is_stmt 0 view .LVU198
 712 0060 0B92     		str	r2, [sp, #44]
 306:Core/Src/stm32g0xx_hal_msp.c ****     GPIO_InitStruct.Alternate = GPIO_AF1_USART2;
 713              		.loc 1 306 5 is_stmt 1 view .LVU199
 306:Core/Src/stm32g0xx_hal_msp.c ****     GPIO_InitStruct.Alternate = GPIO_AF1_USART2;
 714              		.loc 1 306 27 is_stmt 0 view .LVU200
 715 0062 0023     		movs	r3, #0
 716 0064 0C93     		str	r3, [sp, #48]
 307:Core/Src/stm32g0xx_hal_msp.c ****     HAL_GPIO_Init(GPIOA, &GPIO_InitStruct);
 717              		.loc 1 307 5 is_stmt 1 view .LVU201
 307:Core/Src/stm32g0xx_hal_msp.c ****     HAL_GPIO_Init(GPIOA, &GPIO_InitStruct);
 718              		.loc 1 307 31 is_stmt 0 view .LVU202
 719 0066 0D92     		str	r2, [sp, #52]
 308:Core/Src/stm32g0xx_hal_msp.c **** 
 720              		.loc 1 308 5 is_stmt 1 view .LVU203
 721 0068 A020     		movs	r0, #160
 722 006a 09A9     		add	r1, sp, #36
 723 006c C005     		lsls	r0, r0, #23
 724 006e FFF7FEFF 		bl	HAL_GPIO_Init
 725              	.LVL43:
 726              		.loc 1 316 1 is_stmt 0 view .LVU204
 727 0072 D6E7     		b	.L28
 728              	.L32:
 292:Core/Src/stm32g0xx_hal_msp.c ****     }
 729              		.loc 1 292 7 is_stmt 1 view .LVU205
 730 0074 FFF7FEFF 		bl	Error_Handler
 731              	.LVL44:
 732 0078 DCE7     		b	.L30
 733              	.L34:
 734 007a C046     		.align	2
 735              	.L33:
 736 007c 00440040 		.word	1073759232
 737 0080 00100240 		.word	1073876992
 738              		.cfi_endproc
 739              	.LFE448:
 741              		.section	.text.HAL_UART_MspDeInit,"ax",%progbits
 742              		.align	1
 743              		.global	HAL_UART_MspDeInit
 744              		.syntax unified
 745              		.code	16
 746              		.thumb_func
 748              	HAL_UART_MspDeInit:
 749              	.LVL45:
 750              	.LFB449:
 317:Core/Src/stm32g0xx_hal_msp.c **** 
ARM GAS  C:\Users\tugru\AppData\Local\Temp\ccI2jYbD.s 			page 22


 318:Core/Src/stm32g0xx_hal_msp.c **** /**
 319:Core/Src/stm32g0xx_hal_msp.c **** * @brief UART MSP De-Initialization
 320:Core/Src/stm32g0xx_hal_msp.c **** * This function freeze the hardware resources used in this example
 321:Core/Src/stm32g0xx_hal_msp.c **** * @param huart: UART handle pointer
 322:Core/Src/stm32g0xx_hal_msp.c **** * @retval None
 323:Core/Src/stm32g0xx_hal_msp.c **** */
 324:Core/Src/stm32g0xx_hal_msp.c **** void HAL_UART_MspDeInit(UART_HandleTypeDef* huart)
 325:Core/Src/stm32g0xx_hal_msp.c **** {
 751              		.loc 1 325 1 view -0
 752              		.cfi_startproc
 753              		@ args = 0, pretend = 0, frame = 0
 754              		@ frame_needed = 0, uses_anonymous_args = 0
 755              		.loc 1 325 1 is_stmt 0 view .LVU207
 756 0000 10B5     		push	{r4, lr}
 757              	.LCFI9:
 758              		.cfi_def_cfa_offset 8
 759              		.cfi_offset 4, -8
 760              		.cfi_offset 14, -4
 326:Core/Src/stm32g0xx_hal_msp.c ****   if(huart->Instance==USART2)
 761              		.loc 1 326 3 is_stmt 1 view .LVU208
 762              		.loc 1 326 11 is_stmt 0 view .LVU209
 763 0002 0268     		ldr	r2, [r0]
 764              		.loc 1 326 5 view .LVU210
 765 0004 074B     		ldr	r3, .L38
 766 0006 9A42     		cmp	r2, r3
 767 0008 00D0     		beq	.L37
 768              	.LVL46:
 769              	.L35:
 327:Core/Src/stm32g0xx_hal_msp.c ****   {
 328:Core/Src/stm32g0xx_hal_msp.c ****   /* USER CODE BEGIN USART2_MspDeInit 0 */
 329:Core/Src/stm32g0xx_hal_msp.c **** 
 330:Core/Src/stm32g0xx_hal_msp.c ****   /* USER CODE END USART2_MspDeInit 0 */
 331:Core/Src/stm32g0xx_hal_msp.c ****     /* Peripheral clock disable */
 332:Core/Src/stm32g0xx_hal_msp.c ****     __HAL_RCC_USART2_CLK_DISABLE();
 333:Core/Src/stm32g0xx_hal_msp.c **** 
 334:Core/Src/stm32g0xx_hal_msp.c ****     /**USART2 GPIO Configuration
 335:Core/Src/stm32g0xx_hal_msp.c ****     PA2     ------> USART2_TX
 336:Core/Src/stm32g0xx_hal_msp.c ****     PA3     ------> USART2_RX
 337:Core/Src/stm32g0xx_hal_msp.c ****     */
 338:Core/Src/stm32g0xx_hal_msp.c ****     HAL_GPIO_DeInit(GPIOA, GPIO_PIN_2|GPIO_PIN_3);
 339:Core/Src/stm32g0xx_hal_msp.c **** 
 340:Core/Src/stm32g0xx_hal_msp.c ****   /* USER CODE BEGIN USART2_MspDeInit 1 */
 341:Core/Src/stm32g0xx_hal_msp.c **** 
 342:Core/Src/stm32g0xx_hal_msp.c ****   /* USER CODE END USART2_MspDeInit 1 */
 343:Core/Src/stm32g0xx_hal_msp.c ****   }
 344:Core/Src/stm32g0xx_hal_msp.c **** 
 345:Core/Src/stm32g0xx_hal_msp.c **** }
 770              		.loc 1 345 1 view .LVU211
 771              		@ sp needed
 772 000a 10BD     		pop	{r4, pc}
 773              	.LVL47:
 774              	.L37:
 332:Core/Src/stm32g0xx_hal_msp.c **** 
 775              		.loc 1 332 5 is_stmt 1 view .LVU212
 776 000c 064A     		ldr	r2, .L38+4
 777 000e D36B     		ldr	r3, [r2, #60]
 778 0010 0649     		ldr	r1, .L38+8
ARM GAS  C:\Users\tugru\AppData\Local\Temp\ccI2jYbD.s 			page 23


 779 0012 0B40     		ands	r3, r1
 780 0014 D363     		str	r3, [r2, #60]
 338:Core/Src/stm32g0xx_hal_msp.c **** 
 781              		.loc 1 338 5 view .LVU213
 782 0016 A020     		movs	r0, #160
 783              	.LVL48:
 338:Core/Src/stm32g0xx_hal_msp.c **** 
 784              		.loc 1 338 5 is_stmt 0 view .LVU214
 785 0018 0C21     		movs	r1, #12
 786 001a C005     		lsls	r0, r0, #23
 787 001c FFF7FEFF 		bl	HAL_GPIO_DeInit
 788              	.LVL49:
 789              		.loc 1 345 1 view .LVU215
 790 0020 F3E7     		b	.L35
 791              	.L39:
 792 0022 C046     		.align	2
 793              	.L38:
 794 0024 00440040 		.word	1073759232
 795 0028 00100240 		.word	1073876992
 796 002c FFFFFDFF 		.word	-131073
 797              		.cfi_endproc
 798              	.LFE449:
 800              		.text
 801              	.Letext0:
 802              		.file 2 "c:\\dev\\tools\\gcc-arm-none-eabi-10.3-2021.10\\arm-none-eabi\\include\\machine\\_default
 803              		.file 3 "c:\\dev\\tools\\gcc-arm-none-eabi-10.3-2021.10\\arm-none-eabi\\include\\sys\\_stdint.h"
 804              		.file 4 "Drivers/CMSIS/Device/ST/STM32G0xx/Include/stm32g070xx.h"
 805              		.file 5 "Drivers/CMSIS/Device/ST/STM32G0xx/Include/stm32g0xx.h"
 806              		.file 6 "Drivers/STM32G0xx_HAL_Driver/Inc/stm32g0xx_hal_def.h"
 807              		.file 7 "Drivers/STM32G0xx_HAL_Driver/Inc/stm32g0xx_hal_rcc_ex.h"
 808              		.file 8 "Drivers/STM32G0xx_HAL_Driver/Inc/stm32g0xx_hal_gpio.h"
 809              		.file 9 "Drivers/STM32G0xx_HAL_Driver/Inc/stm32g0xx_hal_dma.h"
 810              		.file 10 "Drivers/STM32G0xx_HAL_Driver/Inc/stm32g0xx_hal_adc.h"
 811              		.file 11 "Drivers/STM32G0xx_HAL_Driver/Inc/stm32g0xx_hal_spi.h"
 812              		.file 12 "Drivers/STM32G0xx_HAL_Driver/Inc/stm32g0xx_hal_uart.h"
 813              		.file 13 "Drivers/STM32G0xx_HAL_Driver/Inc/stm32g0xx_ll_dma.h"
 814              		.file 14 "Core/Inc/main.h"
 815              		.file 15 "Drivers/STM32G0xx_HAL_Driver/Inc/stm32g0xx_hal_cortex.h"
 816              		.file 16 "<built-in>"
ARM GAS  C:\Users\tugru\AppData\Local\Temp\ccI2jYbD.s 			page 24

