ARM GAS  C:\Users\tugru\AppData\Local\Temp\ccFmcKQs.s 			page 1


   1              		.cpu cortex-m0plus
   2              		.arch armv6s-m
   3              		.fpu softvfp
   4              		.eabi_attribute 20, 1
   5              		.eabi_attribute 21, 1
   6              		.eabi_attribute 23, 3
   7              		.eabi_attribute 24, 1
   8              		.eabi_attribute 25, 1
   9              		.eabi_attribute 26, 1
  10              		.eabi_attribute 30, 1
  11              		.eabi_attribute 34, 0
  12              		.eabi_attribute 18, 4
  13              		.file	"stm32g0xx_hal_adc.c"
  14              		.text
  15              	.Ltext0:
  16              		.cfi_sections	.debug_frame
  17              		.section	.text.HAL_ADC_MspInit,"ax",%progbits
  18              		.align	1
  19              		.weak	HAL_ADC_MspInit
  20              		.syntax unified
  21              		.code	16
  22              		.thumb_func
  24              	HAL_ADC_MspInit:
  25              	.LVL0:
  26              	.LFB442:
  27              		.file 1 "Drivers/STM32G0xx_HAL_Driver/Src/stm32g0xx_hal_adc.c"
   1:Drivers/STM32G0xx_HAL_Driver/Src/stm32g0xx_hal_adc.c **** /**
   2:Drivers/STM32G0xx_HAL_Driver/Src/stm32g0xx_hal_adc.c ****   ******************************************************************************
   3:Drivers/STM32G0xx_HAL_Driver/Src/stm32g0xx_hal_adc.c ****   * @file    stm32g0xx_hal_adc.c
   4:Drivers/STM32G0xx_HAL_Driver/Src/stm32g0xx_hal_adc.c ****   * @author  MCD Application Team
   5:Drivers/STM32G0xx_HAL_Driver/Src/stm32g0xx_hal_adc.c ****   * @brief   This file provides firmware functions to manage the following
   6:Drivers/STM32G0xx_HAL_Driver/Src/stm32g0xx_hal_adc.c ****   *          functionalities of the Analog to Digital Converter (ADC)
   7:Drivers/STM32G0xx_HAL_Driver/Src/stm32g0xx_hal_adc.c ****   *          peripheral:
   8:Drivers/STM32G0xx_HAL_Driver/Src/stm32g0xx_hal_adc.c ****   *           + Initialization and de-initialization functions
   9:Drivers/STM32G0xx_HAL_Driver/Src/stm32g0xx_hal_adc.c ****   *           + Peripheral Control functions
  10:Drivers/STM32G0xx_HAL_Driver/Src/stm32g0xx_hal_adc.c ****   *           + Peripheral State functions
  11:Drivers/STM32G0xx_HAL_Driver/Src/stm32g0xx_hal_adc.c ****   *          Other functions (extended functions) are available in file
  12:Drivers/STM32G0xx_HAL_Driver/Src/stm32g0xx_hal_adc.c ****   *          "stm32g0xx_hal_adc_ex.c".
  13:Drivers/STM32G0xx_HAL_Driver/Src/stm32g0xx_hal_adc.c ****   *
  14:Drivers/STM32G0xx_HAL_Driver/Src/stm32g0xx_hal_adc.c ****   ******************************************************************************
  15:Drivers/STM32G0xx_HAL_Driver/Src/stm32g0xx_hal_adc.c ****   * @attention
  16:Drivers/STM32G0xx_HAL_Driver/Src/stm32g0xx_hal_adc.c ****   *
  17:Drivers/STM32G0xx_HAL_Driver/Src/stm32g0xx_hal_adc.c ****   * Copyright (c) 2018 STMicroelectronics.
  18:Drivers/STM32G0xx_HAL_Driver/Src/stm32g0xx_hal_adc.c ****   * All rights reserved.
  19:Drivers/STM32G0xx_HAL_Driver/Src/stm32g0xx_hal_adc.c ****   *
  20:Drivers/STM32G0xx_HAL_Driver/Src/stm32g0xx_hal_adc.c ****   * This software is licensed under terms that can be found in the LICENSE file
  21:Drivers/STM32G0xx_HAL_Driver/Src/stm32g0xx_hal_adc.c ****   * in the root directory of this software component.
  22:Drivers/STM32G0xx_HAL_Driver/Src/stm32g0xx_hal_adc.c ****   * If no LICENSE file comes with this software, it is provided AS-IS.
  23:Drivers/STM32G0xx_HAL_Driver/Src/stm32g0xx_hal_adc.c ****   *
  24:Drivers/STM32G0xx_HAL_Driver/Src/stm32g0xx_hal_adc.c ****   ******************************************************************************
  25:Drivers/STM32G0xx_HAL_Driver/Src/stm32g0xx_hal_adc.c ****   @verbatim
  26:Drivers/STM32G0xx_HAL_Driver/Src/stm32g0xx_hal_adc.c ****   ==============================================================================
  27:Drivers/STM32G0xx_HAL_Driver/Src/stm32g0xx_hal_adc.c ****                      ##### ADC peripheral features #####
  28:Drivers/STM32G0xx_HAL_Driver/Src/stm32g0xx_hal_adc.c ****   ==============================================================================
  29:Drivers/STM32G0xx_HAL_Driver/Src/stm32g0xx_hal_adc.c ****   [..]
  30:Drivers/STM32G0xx_HAL_Driver/Src/stm32g0xx_hal_adc.c ****   (+) 12-bit, 10-bit, 8-bit or 6-bit configurable resolution.
  31:Drivers/STM32G0xx_HAL_Driver/Src/stm32g0xx_hal_adc.c **** 
ARM GAS  C:\Users\tugru\AppData\Local\Temp\ccFmcKQs.s 			page 2


  32:Drivers/STM32G0xx_HAL_Driver/Src/stm32g0xx_hal_adc.c ****   (+) Interrupt generation at the end of regular conversion and in case of
  33:Drivers/STM32G0xx_HAL_Driver/Src/stm32g0xx_hal_adc.c ****       analog watchdog or overrun events.
  34:Drivers/STM32G0xx_HAL_Driver/Src/stm32g0xx_hal_adc.c **** 
  35:Drivers/STM32G0xx_HAL_Driver/Src/stm32g0xx_hal_adc.c ****   (+) Single and continuous conversion modes.
  36:Drivers/STM32G0xx_HAL_Driver/Src/stm32g0xx_hal_adc.c **** 
  37:Drivers/STM32G0xx_HAL_Driver/Src/stm32g0xx_hal_adc.c ****   (+) Scan mode for conversion of several channels sequentially.
  38:Drivers/STM32G0xx_HAL_Driver/Src/stm32g0xx_hal_adc.c **** 
  39:Drivers/STM32G0xx_HAL_Driver/Src/stm32g0xx_hal_adc.c ****   (+) Data alignment with in-built data coherency.
  40:Drivers/STM32G0xx_HAL_Driver/Src/stm32g0xx_hal_adc.c **** 
  41:Drivers/STM32G0xx_HAL_Driver/Src/stm32g0xx_hal_adc.c ****   (+) Programmable sampling time (common to group of channels)
  42:Drivers/STM32G0xx_HAL_Driver/Src/stm32g0xx_hal_adc.c **** 
  43:Drivers/STM32G0xx_HAL_Driver/Src/stm32g0xx_hal_adc.c ****   (+) External trigger (timer or EXTI) with configurable polarity
  44:Drivers/STM32G0xx_HAL_Driver/Src/stm32g0xx_hal_adc.c **** 
  45:Drivers/STM32G0xx_HAL_Driver/Src/stm32g0xx_hal_adc.c ****   (+) DMA request generation for transfer of conversions data of regular group.
  46:Drivers/STM32G0xx_HAL_Driver/Src/stm32g0xx_hal_adc.c **** 
  47:Drivers/STM32G0xx_HAL_Driver/Src/stm32g0xx_hal_adc.c ****   (+) ADC calibration
  48:Drivers/STM32G0xx_HAL_Driver/Src/stm32g0xx_hal_adc.c **** 
  49:Drivers/STM32G0xx_HAL_Driver/Src/stm32g0xx_hal_adc.c ****   (+) ADC conversion of regular group.
  50:Drivers/STM32G0xx_HAL_Driver/Src/stm32g0xx_hal_adc.c **** 
  51:Drivers/STM32G0xx_HAL_Driver/Src/stm32g0xx_hal_adc.c ****   (+) ADC supply requirements: 1.62 V to 3.6 V.
  52:Drivers/STM32G0xx_HAL_Driver/Src/stm32g0xx_hal_adc.c **** 
  53:Drivers/STM32G0xx_HAL_Driver/Src/stm32g0xx_hal_adc.c ****   (+) ADC input range: from Vref- (connected to Vssa) to Vref+ (connected to
  54:Drivers/STM32G0xx_HAL_Driver/Src/stm32g0xx_hal_adc.c ****       Vdda or to an external voltage reference).
  55:Drivers/STM32G0xx_HAL_Driver/Src/stm32g0xx_hal_adc.c **** 
  56:Drivers/STM32G0xx_HAL_Driver/Src/stm32g0xx_hal_adc.c **** 
  57:Drivers/STM32G0xx_HAL_Driver/Src/stm32g0xx_hal_adc.c ****                      ##### How to use this driver #####
  58:Drivers/STM32G0xx_HAL_Driver/Src/stm32g0xx_hal_adc.c ****   ==============================================================================
  59:Drivers/STM32G0xx_HAL_Driver/Src/stm32g0xx_hal_adc.c ****     [..]
  60:Drivers/STM32G0xx_HAL_Driver/Src/stm32g0xx_hal_adc.c **** 
  61:Drivers/STM32G0xx_HAL_Driver/Src/stm32g0xx_hal_adc.c ****      *** Configuration of top level parameters related to ADC ***
  62:Drivers/STM32G0xx_HAL_Driver/Src/stm32g0xx_hal_adc.c ****      ============================================================
  63:Drivers/STM32G0xx_HAL_Driver/Src/stm32g0xx_hal_adc.c ****      [..]
  64:Drivers/STM32G0xx_HAL_Driver/Src/stm32g0xx_hal_adc.c **** 
  65:Drivers/STM32G0xx_HAL_Driver/Src/stm32g0xx_hal_adc.c ****     (#) Enable the ADC interface
  66:Drivers/STM32G0xx_HAL_Driver/Src/stm32g0xx_hal_adc.c ****         (++) As prerequisite, ADC clock must be configured at RCC top level.
  67:Drivers/STM32G0xx_HAL_Driver/Src/stm32g0xx_hal_adc.c ****              Caution: On STM32G0, ADC clock frequency max is 35MHz (refer
  68:Drivers/STM32G0xx_HAL_Driver/Src/stm32g0xx_hal_adc.c ****                       to device datasheet).
  69:Drivers/STM32G0xx_HAL_Driver/Src/stm32g0xx_hal_adc.c ****                       Therefore, ADC clock source from RCC and ADC clock
  70:Drivers/STM32G0xx_HAL_Driver/Src/stm32g0xx_hal_adc.c ****                       prescaler must be configured to remain below
  71:Drivers/STM32G0xx_HAL_Driver/Src/stm32g0xx_hal_adc.c ****                       this maximum frequency.
  72:Drivers/STM32G0xx_HAL_Driver/Src/stm32g0xx_hal_adc.c **** 
  73:Drivers/STM32G0xx_HAL_Driver/Src/stm32g0xx_hal_adc.c ****         (++) Two clock settings are mandatory:
  74:Drivers/STM32G0xx_HAL_Driver/Src/stm32g0xx_hal_adc.c ****              (+++) ADC clock (core clock, also possibly conversion clock).
  75:Drivers/STM32G0xx_HAL_Driver/Src/stm32g0xx_hal_adc.c **** 
  76:Drivers/STM32G0xx_HAL_Driver/Src/stm32g0xx_hal_adc.c ****              (+++) ADC clock (conversions clock).
  77:Drivers/STM32G0xx_HAL_Driver/Src/stm32g0xx_hal_adc.c ****                    Four possible clock sources: synchronous clock from APB clock (same as ADC core 
  78:Drivers/STM32G0xx_HAL_Driver/Src/stm32g0xx_hal_adc.c ****                    or asynchronous clock from RCC level: SYSCLK, HSI16, PLLPCLK.
  79:Drivers/STM32G0xx_HAL_Driver/Src/stm32g0xx_hal_adc.c **** 
  80:Drivers/STM32G0xx_HAL_Driver/Src/stm32g0xx_hal_adc.c ****              (+++) Example:
  81:Drivers/STM32G0xx_HAL_Driver/Src/stm32g0xx_hal_adc.c ****                    Into HAL_ADC_MspInit() (recommended code location) or with
  82:Drivers/STM32G0xx_HAL_Driver/Src/stm32g0xx_hal_adc.c ****                    other device clock parameters configuration:
  83:Drivers/STM32G0xx_HAL_Driver/Src/stm32g0xx_hal_adc.c ****                (+++) __HAL_RCC_ADC_CLK_ENABLE();                  (mandatory: core clock)
  84:Drivers/STM32G0xx_HAL_Driver/Src/stm32g0xx_hal_adc.c **** 
  85:Drivers/STM32G0xx_HAL_Driver/Src/stm32g0xx_hal_adc.c ****         (++) ADC clock source and clock prescaler are configured at ADC level with
  86:Drivers/STM32G0xx_HAL_Driver/Src/stm32g0xx_hal_adc.c ****              parameter "ClockPrescaler" using function HAL_ADC_Init().
  87:Drivers/STM32G0xx_HAL_Driver/Src/stm32g0xx_hal_adc.c **** 
  88:Drivers/STM32G0xx_HAL_Driver/Src/stm32g0xx_hal_adc.c ****     (#) ADC pins configuration
ARM GAS  C:\Users\tugru\AppData\Local\Temp\ccFmcKQs.s 			page 3


  89:Drivers/STM32G0xx_HAL_Driver/Src/stm32g0xx_hal_adc.c ****          (++) Enable the clock for the ADC GPIOs
  90:Drivers/STM32G0xx_HAL_Driver/Src/stm32g0xx_hal_adc.c ****               using macro __HAL_RCC_GPIOx_CLK_ENABLE()
  91:Drivers/STM32G0xx_HAL_Driver/Src/stm32g0xx_hal_adc.c ****          (++) Configure these ADC pins in analog mode
  92:Drivers/STM32G0xx_HAL_Driver/Src/stm32g0xx_hal_adc.c ****               using function HAL_GPIO_Init()
  93:Drivers/STM32G0xx_HAL_Driver/Src/stm32g0xx_hal_adc.c **** 
  94:Drivers/STM32G0xx_HAL_Driver/Src/stm32g0xx_hal_adc.c ****     (#) Optionally, in case of usage of ADC with interruptions:
  95:Drivers/STM32G0xx_HAL_Driver/Src/stm32g0xx_hal_adc.c ****          (++) Configure the NVIC for ADC
  96:Drivers/STM32G0xx_HAL_Driver/Src/stm32g0xx_hal_adc.c ****               using function HAL_NVIC_EnableIRQ(ADCx_IRQn)
  97:Drivers/STM32G0xx_HAL_Driver/Src/stm32g0xx_hal_adc.c ****          (++) Insert the ADC interruption handler function HAL_ADC_IRQHandler()
  98:Drivers/STM32G0xx_HAL_Driver/Src/stm32g0xx_hal_adc.c ****               into the function of corresponding ADC interruption vector
  99:Drivers/STM32G0xx_HAL_Driver/Src/stm32g0xx_hal_adc.c ****               ADCx_IRQHandler().
 100:Drivers/STM32G0xx_HAL_Driver/Src/stm32g0xx_hal_adc.c **** 
 101:Drivers/STM32G0xx_HAL_Driver/Src/stm32g0xx_hal_adc.c ****     (#) Optionally, in case of usage of DMA:
 102:Drivers/STM32G0xx_HAL_Driver/Src/stm32g0xx_hal_adc.c ****          (++) Configure the DMA (DMA channel, mode normal or circular, ...)
 103:Drivers/STM32G0xx_HAL_Driver/Src/stm32g0xx_hal_adc.c ****               using function HAL_DMA_Init().
 104:Drivers/STM32G0xx_HAL_Driver/Src/stm32g0xx_hal_adc.c ****          (++) Configure the NVIC for DMA
 105:Drivers/STM32G0xx_HAL_Driver/Src/stm32g0xx_hal_adc.c ****               using function HAL_NVIC_EnableIRQ(DMAx_Channelx_IRQn)
 106:Drivers/STM32G0xx_HAL_Driver/Src/stm32g0xx_hal_adc.c ****          (++) Insert the ADC interruption handler function HAL_ADC_IRQHandler()
 107:Drivers/STM32G0xx_HAL_Driver/Src/stm32g0xx_hal_adc.c ****               into the function of corresponding DMA interruption vector
 108:Drivers/STM32G0xx_HAL_Driver/Src/stm32g0xx_hal_adc.c ****               DMAx_Channelx_IRQHandler().
 109:Drivers/STM32G0xx_HAL_Driver/Src/stm32g0xx_hal_adc.c **** 
 110:Drivers/STM32G0xx_HAL_Driver/Src/stm32g0xx_hal_adc.c ****      *** Configuration of ADC, group regular, channels parameters ***
 111:Drivers/STM32G0xx_HAL_Driver/Src/stm32g0xx_hal_adc.c ****      ================================================================
 112:Drivers/STM32G0xx_HAL_Driver/Src/stm32g0xx_hal_adc.c ****      [..]
 113:Drivers/STM32G0xx_HAL_Driver/Src/stm32g0xx_hal_adc.c **** 
 114:Drivers/STM32G0xx_HAL_Driver/Src/stm32g0xx_hal_adc.c ****     (#) Configure the ADC parameters (resolution, data alignment, ...)
 115:Drivers/STM32G0xx_HAL_Driver/Src/stm32g0xx_hal_adc.c ****         and regular group parameters (conversion trigger, sequencer, ...)
 116:Drivers/STM32G0xx_HAL_Driver/Src/stm32g0xx_hal_adc.c ****         using function HAL_ADC_Init().
 117:Drivers/STM32G0xx_HAL_Driver/Src/stm32g0xx_hal_adc.c **** 
 118:Drivers/STM32G0xx_HAL_Driver/Src/stm32g0xx_hal_adc.c ****     (#) Configure the channels for regular group parameters (channel number,
 119:Drivers/STM32G0xx_HAL_Driver/Src/stm32g0xx_hal_adc.c ****         channel rank into sequencer, ..., into regular group)
 120:Drivers/STM32G0xx_HAL_Driver/Src/stm32g0xx_hal_adc.c ****         using function HAL_ADC_ConfigChannel().
 121:Drivers/STM32G0xx_HAL_Driver/Src/stm32g0xx_hal_adc.c **** 
 122:Drivers/STM32G0xx_HAL_Driver/Src/stm32g0xx_hal_adc.c ****     (#) Optionally, configure the analog watchdog parameters (channels
 123:Drivers/STM32G0xx_HAL_Driver/Src/stm32g0xx_hal_adc.c ****         monitored, thresholds, ...)
 124:Drivers/STM32G0xx_HAL_Driver/Src/stm32g0xx_hal_adc.c ****         using function HAL_ADC_AnalogWDGConfig().
 125:Drivers/STM32G0xx_HAL_Driver/Src/stm32g0xx_hal_adc.c **** 
 126:Drivers/STM32G0xx_HAL_Driver/Src/stm32g0xx_hal_adc.c ****      *** Execution of ADC conversions ***
 127:Drivers/STM32G0xx_HAL_Driver/Src/stm32g0xx_hal_adc.c ****      ====================================
 128:Drivers/STM32G0xx_HAL_Driver/Src/stm32g0xx_hal_adc.c ****      [..]
 129:Drivers/STM32G0xx_HAL_Driver/Src/stm32g0xx_hal_adc.c **** 
 130:Drivers/STM32G0xx_HAL_Driver/Src/stm32g0xx_hal_adc.c ****     (#) Optionally, perform an automatic ADC calibration to improve the
 131:Drivers/STM32G0xx_HAL_Driver/Src/stm32g0xx_hal_adc.c ****         conversion accuracy
 132:Drivers/STM32G0xx_HAL_Driver/Src/stm32g0xx_hal_adc.c ****         using function HAL_ADCEx_Calibration_Start().
 133:Drivers/STM32G0xx_HAL_Driver/Src/stm32g0xx_hal_adc.c **** 
 134:Drivers/STM32G0xx_HAL_Driver/Src/stm32g0xx_hal_adc.c ****     (#) ADC driver can be used among three modes: polling, interruption,
 135:Drivers/STM32G0xx_HAL_Driver/Src/stm32g0xx_hal_adc.c ****         transfer by DMA.
 136:Drivers/STM32G0xx_HAL_Driver/Src/stm32g0xx_hal_adc.c **** 
 137:Drivers/STM32G0xx_HAL_Driver/Src/stm32g0xx_hal_adc.c ****         (++) ADC conversion by polling:
 138:Drivers/STM32G0xx_HAL_Driver/Src/stm32g0xx_hal_adc.c ****           (+++) Activate the ADC peripheral and start conversions
 139:Drivers/STM32G0xx_HAL_Driver/Src/stm32g0xx_hal_adc.c ****                 using function HAL_ADC_Start()
 140:Drivers/STM32G0xx_HAL_Driver/Src/stm32g0xx_hal_adc.c ****           (+++) Wait for ADC conversion completion
 141:Drivers/STM32G0xx_HAL_Driver/Src/stm32g0xx_hal_adc.c ****                 using function HAL_ADC_PollForConversion()
 142:Drivers/STM32G0xx_HAL_Driver/Src/stm32g0xx_hal_adc.c ****           (+++) Retrieve conversion results
 143:Drivers/STM32G0xx_HAL_Driver/Src/stm32g0xx_hal_adc.c ****                 using function HAL_ADC_GetValue()
 144:Drivers/STM32G0xx_HAL_Driver/Src/stm32g0xx_hal_adc.c ****           (+++) Stop conversion and disable the ADC peripheral
 145:Drivers/STM32G0xx_HAL_Driver/Src/stm32g0xx_hal_adc.c ****                 using function HAL_ADC_Stop()
ARM GAS  C:\Users\tugru\AppData\Local\Temp\ccFmcKQs.s 			page 4


 146:Drivers/STM32G0xx_HAL_Driver/Src/stm32g0xx_hal_adc.c **** 
 147:Drivers/STM32G0xx_HAL_Driver/Src/stm32g0xx_hal_adc.c ****         (++) ADC conversion by interruption:
 148:Drivers/STM32G0xx_HAL_Driver/Src/stm32g0xx_hal_adc.c ****           (+++) Activate the ADC peripheral and start conversions
 149:Drivers/STM32G0xx_HAL_Driver/Src/stm32g0xx_hal_adc.c ****                 using function HAL_ADC_Start_IT()
 150:Drivers/STM32G0xx_HAL_Driver/Src/stm32g0xx_hal_adc.c ****           (+++) Wait for ADC conversion completion by call of function
 151:Drivers/STM32G0xx_HAL_Driver/Src/stm32g0xx_hal_adc.c ****                 HAL_ADC_ConvCpltCallback()
 152:Drivers/STM32G0xx_HAL_Driver/Src/stm32g0xx_hal_adc.c ****                 (this function must be implemented in user program)
 153:Drivers/STM32G0xx_HAL_Driver/Src/stm32g0xx_hal_adc.c ****           (+++) Retrieve conversion results
 154:Drivers/STM32G0xx_HAL_Driver/Src/stm32g0xx_hal_adc.c ****                 using function HAL_ADC_GetValue()
 155:Drivers/STM32G0xx_HAL_Driver/Src/stm32g0xx_hal_adc.c ****           (+++) Stop conversion and disable the ADC peripheral
 156:Drivers/STM32G0xx_HAL_Driver/Src/stm32g0xx_hal_adc.c ****                 using function HAL_ADC_Stop_IT()
 157:Drivers/STM32G0xx_HAL_Driver/Src/stm32g0xx_hal_adc.c **** 
 158:Drivers/STM32G0xx_HAL_Driver/Src/stm32g0xx_hal_adc.c ****         (++) ADC conversion with transfer by DMA:
 159:Drivers/STM32G0xx_HAL_Driver/Src/stm32g0xx_hal_adc.c ****           (+++) Activate the ADC peripheral and start conversions
 160:Drivers/STM32G0xx_HAL_Driver/Src/stm32g0xx_hal_adc.c ****                 using function HAL_ADC_Start_DMA()
 161:Drivers/STM32G0xx_HAL_Driver/Src/stm32g0xx_hal_adc.c ****           (+++) Wait for ADC conversion completion by call of function
 162:Drivers/STM32G0xx_HAL_Driver/Src/stm32g0xx_hal_adc.c ****                 HAL_ADC_ConvCpltCallback() or HAL_ADC_ConvHalfCpltCallback()
 163:Drivers/STM32G0xx_HAL_Driver/Src/stm32g0xx_hal_adc.c ****                 (these functions must be implemented in user program)
 164:Drivers/STM32G0xx_HAL_Driver/Src/stm32g0xx_hal_adc.c ****           (+++) Conversion results are automatically transferred by DMA into
 165:Drivers/STM32G0xx_HAL_Driver/Src/stm32g0xx_hal_adc.c ****                 destination variable address.
 166:Drivers/STM32G0xx_HAL_Driver/Src/stm32g0xx_hal_adc.c ****           (+++) Stop conversion and disable the ADC peripheral
 167:Drivers/STM32G0xx_HAL_Driver/Src/stm32g0xx_hal_adc.c ****                 using function HAL_ADC_Stop_DMA()
 168:Drivers/STM32G0xx_HAL_Driver/Src/stm32g0xx_hal_adc.c **** 
 169:Drivers/STM32G0xx_HAL_Driver/Src/stm32g0xx_hal_adc.c ****      [..]
 170:Drivers/STM32G0xx_HAL_Driver/Src/stm32g0xx_hal_adc.c **** 
 171:Drivers/STM32G0xx_HAL_Driver/Src/stm32g0xx_hal_adc.c ****     (@) Callback functions must be implemented in user program:
 172:Drivers/STM32G0xx_HAL_Driver/Src/stm32g0xx_hal_adc.c ****       (+@) HAL_ADC_ErrorCallback()
 173:Drivers/STM32G0xx_HAL_Driver/Src/stm32g0xx_hal_adc.c ****       (+@) HAL_ADC_LevelOutOfWindowCallback() (callback of analog watchdog)
 174:Drivers/STM32G0xx_HAL_Driver/Src/stm32g0xx_hal_adc.c ****       (+@) HAL_ADC_ConvCpltCallback()
 175:Drivers/STM32G0xx_HAL_Driver/Src/stm32g0xx_hal_adc.c ****       (+@) HAL_ADC_ConvHalfCpltCallback
 176:Drivers/STM32G0xx_HAL_Driver/Src/stm32g0xx_hal_adc.c **** 
 177:Drivers/STM32G0xx_HAL_Driver/Src/stm32g0xx_hal_adc.c ****      *** Deinitialization of ADC ***
 178:Drivers/STM32G0xx_HAL_Driver/Src/stm32g0xx_hal_adc.c ****      ============================================================
 179:Drivers/STM32G0xx_HAL_Driver/Src/stm32g0xx_hal_adc.c ****      [..]
 180:Drivers/STM32G0xx_HAL_Driver/Src/stm32g0xx_hal_adc.c **** 
 181:Drivers/STM32G0xx_HAL_Driver/Src/stm32g0xx_hal_adc.c ****     (#) Disable the ADC interface
 182:Drivers/STM32G0xx_HAL_Driver/Src/stm32g0xx_hal_adc.c ****       (++) ADC clock can be hard reset and disabled at RCC top level.
 183:Drivers/STM32G0xx_HAL_Driver/Src/stm32g0xx_hal_adc.c ****         (++) Hard reset of ADC peripherals
 184:Drivers/STM32G0xx_HAL_Driver/Src/stm32g0xx_hal_adc.c ****              using macro __ADCx_FORCE_RESET(), __ADCx_RELEASE_RESET().
 185:Drivers/STM32G0xx_HAL_Driver/Src/stm32g0xx_hal_adc.c ****         (++) ADC clock disable
 186:Drivers/STM32G0xx_HAL_Driver/Src/stm32g0xx_hal_adc.c ****              using the equivalent macro/functions as configuration step.
 187:Drivers/STM32G0xx_HAL_Driver/Src/stm32g0xx_hal_adc.c ****              (+++) Example:
 188:Drivers/STM32G0xx_HAL_Driver/Src/stm32g0xx_hal_adc.c ****                    Into HAL_ADC_MspDeInit() (recommended code location) or with
 189:Drivers/STM32G0xx_HAL_Driver/Src/stm32g0xx_hal_adc.c ****                    other device clock parameters configuration:
 190:Drivers/STM32G0xx_HAL_Driver/Src/stm32g0xx_hal_adc.c ****                (+++) RCC_OscInitStructure.OscillatorType = RCC_OSCILLATORTYPE_HSI14;
 191:Drivers/STM32G0xx_HAL_Driver/Src/stm32g0xx_hal_adc.c ****                (+++) RCC_OscInitStructure.HSI14State = RCC_HSI14_OFF; (if not used for system clock
 192:Drivers/STM32G0xx_HAL_Driver/Src/stm32g0xx_hal_adc.c ****                (+++) HAL_RCC_OscConfig(&RCC_OscInitStructure);
 193:Drivers/STM32G0xx_HAL_Driver/Src/stm32g0xx_hal_adc.c **** 
 194:Drivers/STM32G0xx_HAL_Driver/Src/stm32g0xx_hal_adc.c ****     (#) ADC pins configuration
 195:Drivers/STM32G0xx_HAL_Driver/Src/stm32g0xx_hal_adc.c ****          (++) Disable the clock for the ADC GPIOs
 196:Drivers/STM32G0xx_HAL_Driver/Src/stm32g0xx_hal_adc.c ****               using macro __HAL_RCC_GPIOx_CLK_DISABLE()
 197:Drivers/STM32G0xx_HAL_Driver/Src/stm32g0xx_hal_adc.c **** 
 198:Drivers/STM32G0xx_HAL_Driver/Src/stm32g0xx_hal_adc.c ****     (#) Optionally, in case of usage of ADC with interruptions:
 199:Drivers/STM32G0xx_HAL_Driver/Src/stm32g0xx_hal_adc.c ****          (++) Disable the NVIC for ADC
 200:Drivers/STM32G0xx_HAL_Driver/Src/stm32g0xx_hal_adc.c ****               using function HAL_NVIC_EnableIRQ(ADCx_IRQn)
 201:Drivers/STM32G0xx_HAL_Driver/Src/stm32g0xx_hal_adc.c **** 
 202:Drivers/STM32G0xx_HAL_Driver/Src/stm32g0xx_hal_adc.c ****     (#) Optionally, in case of usage of DMA:
ARM GAS  C:\Users\tugru\AppData\Local\Temp\ccFmcKQs.s 			page 5


 203:Drivers/STM32G0xx_HAL_Driver/Src/stm32g0xx_hal_adc.c ****          (++) Deinitialize the DMA
 204:Drivers/STM32G0xx_HAL_Driver/Src/stm32g0xx_hal_adc.c ****               using function HAL_DMA_Init().
 205:Drivers/STM32G0xx_HAL_Driver/Src/stm32g0xx_hal_adc.c ****          (++) Disable the NVIC for DMA
 206:Drivers/STM32G0xx_HAL_Driver/Src/stm32g0xx_hal_adc.c ****               using function HAL_NVIC_EnableIRQ(DMAx_Channelx_IRQn)
 207:Drivers/STM32G0xx_HAL_Driver/Src/stm32g0xx_hal_adc.c **** 
 208:Drivers/STM32G0xx_HAL_Driver/Src/stm32g0xx_hal_adc.c ****     [..]
 209:Drivers/STM32G0xx_HAL_Driver/Src/stm32g0xx_hal_adc.c **** 
 210:Drivers/STM32G0xx_HAL_Driver/Src/stm32g0xx_hal_adc.c ****     *** Callback registration ***
 211:Drivers/STM32G0xx_HAL_Driver/Src/stm32g0xx_hal_adc.c ****     =============================================
 212:Drivers/STM32G0xx_HAL_Driver/Src/stm32g0xx_hal_adc.c ****     [..]
 213:Drivers/STM32G0xx_HAL_Driver/Src/stm32g0xx_hal_adc.c **** 
 214:Drivers/STM32G0xx_HAL_Driver/Src/stm32g0xx_hal_adc.c ****      The compilation flag USE_HAL_ADC_REGISTER_CALLBACKS, when set to 1,
 215:Drivers/STM32G0xx_HAL_Driver/Src/stm32g0xx_hal_adc.c ****      allows the user to configure dynamically the driver callbacks.
 216:Drivers/STM32G0xx_HAL_Driver/Src/stm32g0xx_hal_adc.c ****      Use Functions HAL_ADC_RegisterCallback()
 217:Drivers/STM32G0xx_HAL_Driver/Src/stm32g0xx_hal_adc.c ****      to register an interrupt callback.
 218:Drivers/STM32G0xx_HAL_Driver/Src/stm32g0xx_hal_adc.c ****     [..]
 219:Drivers/STM32G0xx_HAL_Driver/Src/stm32g0xx_hal_adc.c **** 
 220:Drivers/STM32G0xx_HAL_Driver/Src/stm32g0xx_hal_adc.c ****      Function HAL_ADC_RegisterCallback() allows to register following callbacks:
 221:Drivers/STM32G0xx_HAL_Driver/Src/stm32g0xx_hal_adc.c ****        (+) ConvCpltCallback               : ADC conversion complete callback
 222:Drivers/STM32G0xx_HAL_Driver/Src/stm32g0xx_hal_adc.c ****        (+) ConvHalfCpltCallback           : ADC conversion DMA half-transfer callback
 223:Drivers/STM32G0xx_HAL_Driver/Src/stm32g0xx_hal_adc.c ****        (+) LevelOutOfWindowCallback       : ADC analog watchdog 1 callback
 224:Drivers/STM32G0xx_HAL_Driver/Src/stm32g0xx_hal_adc.c ****        (+) ErrorCallback                  : ADC error callback
 225:Drivers/STM32G0xx_HAL_Driver/Src/stm32g0xx_hal_adc.c ****        (+) LevelOutOfWindow2Callback      : ADC analog watchdog 2 callback
 226:Drivers/STM32G0xx_HAL_Driver/Src/stm32g0xx_hal_adc.c ****        (+) LevelOutOfWindow3Callback      : ADC analog watchdog 3 callback
 227:Drivers/STM32G0xx_HAL_Driver/Src/stm32g0xx_hal_adc.c ****        (+) EndOfSamplingCallback          : ADC end of sampling callback
 228:Drivers/STM32G0xx_HAL_Driver/Src/stm32g0xx_hal_adc.c ****        (+) MspInitCallback                : ADC Msp Init callback
 229:Drivers/STM32G0xx_HAL_Driver/Src/stm32g0xx_hal_adc.c ****        (+) MspDeInitCallback              : ADC Msp DeInit callback
 230:Drivers/STM32G0xx_HAL_Driver/Src/stm32g0xx_hal_adc.c ****      This function takes as parameters the HAL peripheral handle, the Callback ID
 231:Drivers/STM32G0xx_HAL_Driver/Src/stm32g0xx_hal_adc.c ****      and a pointer to the user callback function.
 232:Drivers/STM32G0xx_HAL_Driver/Src/stm32g0xx_hal_adc.c ****     [..]
 233:Drivers/STM32G0xx_HAL_Driver/Src/stm32g0xx_hal_adc.c **** 
 234:Drivers/STM32G0xx_HAL_Driver/Src/stm32g0xx_hal_adc.c ****      Use function HAL_ADC_UnRegisterCallback to reset a callback to the default
 235:Drivers/STM32G0xx_HAL_Driver/Src/stm32g0xx_hal_adc.c ****      weak function.
 236:Drivers/STM32G0xx_HAL_Driver/Src/stm32g0xx_hal_adc.c ****     [..]
 237:Drivers/STM32G0xx_HAL_Driver/Src/stm32g0xx_hal_adc.c **** 
 238:Drivers/STM32G0xx_HAL_Driver/Src/stm32g0xx_hal_adc.c ****      HAL_ADC_UnRegisterCallback takes as parameters the HAL peripheral handle,
 239:Drivers/STM32G0xx_HAL_Driver/Src/stm32g0xx_hal_adc.c ****      and the Callback ID.
 240:Drivers/STM32G0xx_HAL_Driver/Src/stm32g0xx_hal_adc.c ****      This function allows to reset following callbacks:
 241:Drivers/STM32G0xx_HAL_Driver/Src/stm32g0xx_hal_adc.c ****        (+) ConvCpltCallback               : ADC conversion complete callback
 242:Drivers/STM32G0xx_HAL_Driver/Src/stm32g0xx_hal_adc.c ****        (+) ConvHalfCpltCallback           : ADC conversion DMA half-transfer callback
 243:Drivers/STM32G0xx_HAL_Driver/Src/stm32g0xx_hal_adc.c ****        (+) LevelOutOfWindowCallback       : ADC analog watchdog 1 callback
 244:Drivers/STM32G0xx_HAL_Driver/Src/stm32g0xx_hal_adc.c ****        (+) ErrorCallback                  : ADC error callback
 245:Drivers/STM32G0xx_HAL_Driver/Src/stm32g0xx_hal_adc.c ****        (+) LevelOutOfWindow2Callback      : ADC analog watchdog 2 callback
 246:Drivers/STM32G0xx_HAL_Driver/Src/stm32g0xx_hal_adc.c ****        (+) LevelOutOfWindow3Callback      : ADC analog watchdog 3 callback
 247:Drivers/STM32G0xx_HAL_Driver/Src/stm32g0xx_hal_adc.c ****        (+) EndOfSamplingCallback          : ADC end of sampling callback
 248:Drivers/STM32G0xx_HAL_Driver/Src/stm32g0xx_hal_adc.c ****        (+) MspInitCallback                : ADC Msp Init callback
 249:Drivers/STM32G0xx_HAL_Driver/Src/stm32g0xx_hal_adc.c ****        (+) MspDeInitCallback              : ADC Msp DeInit callback
 250:Drivers/STM32G0xx_HAL_Driver/Src/stm32g0xx_hal_adc.c ****      [..]
 251:Drivers/STM32G0xx_HAL_Driver/Src/stm32g0xx_hal_adc.c **** 
 252:Drivers/STM32G0xx_HAL_Driver/Src/stm32g0xx_hal_adc.c ****      By default, after the HAL_ADC_Init() and when the state is HAL_ADC_STATE_RESET
 253:Drivers/STM32G0xx_HAL_Driver/Src/stm32g0xx_hal_adc.c ****      all callbacks are set to the corresponding weak functions:
 254:Drivers/STM32G0xx_HAL_Driver/Src/stm32g0xx_hal_adc.c ****      examples HAL_ADC_ConvCpltCallback(), HAL_ADC_ErrorCallback().
 255:Drivers/STM32G0xx_HAL_Driver/Src/stm32g0xx_hal_adc.c ****      Exception done for MspInit and MspDeInit functions that are
 256:Drivers/STM32G0xx_HAL_Driver/Src/stm32g0xx_hal_adc.c ****      reset to the legacy weak functions in the HAL_ADC_Init()/ HAL_ADC_DeInit() only when
 257:Drivers/STM32G0xx_HAL_Driver/Src/stm32g0xx_hal_adc.c ****      these callbacks are null (not registered beforehand).
 258:Drivers/STM32G0xx_HAL_Driver/Src/stm32g0xx_hal_adc.c ****     [..]
 259:Drivers/STM32G0xx_HAL_Driver/Src/stm32g0xx_hal_adc.c **** 
ARM GAS  C:\Users\tugru\AppData\Local\Temp\ccFmcKQs.s 			page 6


 260:Drivers/STM32G0xx_HAL_Driver/Src/stm32g0xx_hal_adc.c ****      If MspInit or MspDeInit are not null, the HAL_ADC_Init()/ HAL_ADC_DeInit()
 261:Drivers/STM32G0xx_HAL_Driver/Src/stm32g0xx_hal_adc.c ****      keep and use the user MspInit/MspDeInit callbacks (registered beforehand) whatever the state.
 262:Drivers/STM32G0xx_HAL_Driver/Src/stm32g0xx_hal_adc.c ****      [..]
 263:Drivers/STM32G0xx_HAL_Driver/Src/stm32g0xx_hal_adc.c **** 
 264:Drivers/STM32G0xx_HAL_Driver/Src/stm32g0xx_hal_adc.c ****      Callbacks can be registered/unregistered in HAL_ADC_STATE_READY state only.
 265:Drivers/STM32G0xx_HAL_Driver/Src/stm32g0xx_hal_adc.c ****      Exception done MspInit/MspDeInit functions that can be registered/unregistered
 266:Drivers/STM32G0xx_HAL_Driver/Src/stm32g0xx_hal_adc.c ****      in HAL_ADC_STATE_READY or HAL_ADC_STATE_RESET state,
 267:Drivers/STM32G0xx_HAL_Driver/Src/stm32g0xx_hal_adc.c ****      thus registered (user) MspInit/DeInit callbacks can be used during the Init/DeInit.
 268:Drivers/STM32G0xx_HAL_Driver/Src/stm32g0xx_hal_adc.c ****     [..]
 269:Drivers/STM32G0xx_HAL_Driver/Src/stm32g0xx_hal_adc.c **** 
 270:Drivers/STM32G0xx_HAL_Driver/Src/stm32g0xx_hal_adc.c ****      Then, the user first registers the MspInit/MspDeInit user callbacks
 271:Drivers/STM32G0xx_HAL_Driver/Src/stm32g0xx_hal_adc.c ****      using HAL_ADC_RegisterCallback() before calling HAL_ADC_DeInit()
 272:Drivers/STM32G0xx_HAL_Driver/Src/stm32g0xx_hal_adc.c ****      or HAL_ADC_Init() function.
 273:Drivers/STM32G0xx_HAL_Driver/Src/stm32g0xx_hal_adc.c ****      [..]
 274:Drivers/STM32G0xx_HAL_Driver/Src/stm32g0xx_hal_adc.c **** 
 275:Drivers/STM32G0xx_HAL_Driver/Src/stm32g0xx_hal_adc.c ****      When the compilation flag USE_HAL_ADC_REGISTER_CALLBACKS is set to 0 or
 276:Drivers/STM32G0xx_HAL_Driver/Src/stm32g0xx_hal_adc.c ****      not defined, the callback registration feature is not available and all callbacks
 277:Drivers/STM32G0xx_HAL_Driver/Src/stm32g0xx_hal_adc.c ****      are set to the corresponding weak functions.
 278:Drivers/STM32G0xx_HAL_Driver/Src/stm32g0xx_hal_adc.c **** 
 279:Drivers/STM32G0xx_HAL_Driver/Src/stm32g0xx_hal_adc.c ****   @endverbatim
 280:Drivers/STM32G0xx_HAL_Driver/Src/stm32g0xx_hal_adc.c ****   ******************************************************************************
 281:Drivers/STM32G0xx_HAL_Driver/Src/stm32g0xx_hal_adc.c ****   */
 282:Drivers/STM32G0xx_HAL_Driver/Src/stm32g0xx_hal_adc.c **** 
 283:Drivers/STM32G0xx_HAL_Driver/Src/stm32g0xx_hal_adc.c **** /* Includes ------------------------------------------------------------------*/
 284:Drivers/STM32G0xx_HAL_Driver/Src/stm32g0xx_hal_adc.c **** #include "stm32g0xx_hal.h"
 285:Drivers/STM32G0xx_HAL_Driver/Src/stm32g0xx_hal_adc.c **** 
 286:Drivers/STM32G0xx_HAL_Driver/Src/stm32g0xx_hal_adc.c **** /** @addtogroup STM32G0xx_HAL_Driver
 287:Drivers/STM32G0xx_HAL_Driver/Src/stm32g0xx_hal_adc.c ****   * @{
 288:Drivers/STM32G0xx_HAL_Driver/Src/stm32g0xx_hal_adc.c ****   */
 289:Drivers/STM32G0xx_HAL_Driver/Src/stm32g0xx_hal_adc.c **** 
 290:Drivers/STM32G0xx_HAL_Driver/Src/stm32g0xx_hal_adc.c **** /** @defgroup ADC ADC
 291:Drivers/STM32G0xx_HAL_Driver/Src/stm32g0xx_hal_adc.c ****   * @brief ADC HAL module driver
 292:Drivers/STM32G0xx_HAL_Driver/Src/stm32g0xx_hal_adc.c ****   * @{
 293:Drivers/STM32G0xx_HAL_Driver/Src/stm32g0xx_hal_adc.c ****   */
 294:Drivers/STM32G0xx_HAL_Driver/Src/stm32g0xx_hal_adc.c **** 
 295:Drivers/STM32G0xx_HAL_Driver/Src/stm32g0xx_hal_adc.c **** #ifdef HAL_ADC_MODULE_ENABLED
 296:Drivers/STM32G0xx_HAL_Driver/Src/stm32g0xx_hal_adc.c **** 
 297:Drivers/STM32G0xx_HAL_Driver/Src/stm32g0xx_hal_adc.c **** /* Private typedef -----------------------------------------------------------*/
 298:Drivers/STM32G0xx_HAL_Driver/Src/stm32g0xx_hal_adc.c **** /* Private define ------------------------------------------------------------*/
 299:Drivers/STM32G0xx_HAL_Driver/Src/stm32g0xx_hal_adc.c **** 
 300:Drivers/STM32G0xx_HAL_Driver/Src/stm32g0xx_hal_adc.c **** /** @defgroup ADC_Private_Constants ADC Private Constants
 301:Drivers/STM32G0xx_HAL_Driver/Src/stm32g0xx_hal_adc.c ****   * @{
 302:Drivers/STM32G0xx_HAL_Driver/Src/stm32g0xx_hal_adc.c ****   */
 303:Drivers/STM32G0xx_HAL_Driver/Src/stm32g0xx_hal_adc.c **** 
 304:Drivers/STM32G0xx_HAL_Driver/Src/stm32g0xx_hal_adc.c **** /* Fixed timeout values for ADC calibration, enable settling time, disable  */
 305:Drivers/STM32G0xx_HAL_Driver/Src/stm32g0xx_hal_adc.c **** /* settling time.                                                           */
 306:Drivers/STM32G0xx_HAL_Driver/Src/stm32g0xx_hal_adc.c **** /* Values defined to be higher than worst cases: low clock frequency,       */
 307:Drivers/STM32G0xx_HAL_Driver/Src/stm32g0xx_hal_adc.c **** /* maximum prescaler.                                                       */
 308:Drivers/STM32G0xx_HAL_Driver/Src/stm32g0xx_hal_adc.c **** /* Ex of profile low frequency : Clock source at 0.1 MHz, ADC clock         */
 309:Drivers/STM32G0xx_HAL_Driver/Src/stm32g0xx_hal_adc.c **** /* prescaler 4, sampling time 7.5 ADC clock cycles, resolution 12 bits.     */
 310:Drivers/STM32G0xx_HAL_Driver/Src/stm32g0xx_hal_adc.c **** /* Unit: ms                                                                 */
 311:Drivers/STM32G0xx_HAL_Driver/Src/stm32g0xx_hal_adc.c **** #define ADC_ENABLE_TIMEOUT              (2UL)
 312:Drivers/STM32G0xx_HAL_Driver/Src/stm32g0xx_hal_adc.c **** #define ADC_DISABLE_TIMEOUT             (2UL)
 313:Drivers/STM32G0xx_HAL_Driver/Src/stm32g0xx_hal_adc.c **** #define ADC_STOP_CONVERSION_TIMEOUT     (2UL)
 314:Drivers/STM32G0xx_HAL_Driver/Src/stm32g0xx_hal_adc.c **** #define ADC_CHANNEL_CONF_RDY_TIMEOUT    (1UL)
 315:Drivers/STM32G0xx_HAL_Driver/Src/stm32g0xx_hal_adc.c **** 
 316:Drivers/STM32G0xx_HAL_Driver/Src/stm32g0xx_hal_adc.c **** /* Register CHSELR bits corresponding to ranks 2 to 8 .                     */
ARM GAS  C:\Users\tugru\AppData\Local\Temp\ccFmcKQs.s 			page 7


 317:Drivers/STM32G0xx_HAL_Driver/Src/stm32g0xx_hal_adc.c **** #define ADC_CHSELR_SQ2_TO_SQ8           (ADC_CHSELR_SQ2 | ADC_CHSELR_SQ3 | ADC_CHSELR_SQ4 | \
 318:Drivers/STM32G0xx_HAL_Driver/Src/stm32g0xx_hal_adc.c ****                                          ADC_CHSELR_SQ5 | ADC_CHSELR_SQ6 | ADC_CHSELR_SQ7 | ADC_CHS
 319:Drivers/STM32G0xx_HAL_Driver/Src/stm32g0xx_hal_adc.c **** 
 320:Drivers/STM32G0xx_HAL_Driver/Src/stm32g0xx_hal_adc.c **** /**
 321:Drivers/STM32G0xx_HAL_Driver/Src/stm32g0xx_hal_adc.c ****   * @}
 322:Drivers/STM32G0xx_HAL_Driver/Src/stm32g0xx_hal_adc.c ****   */
 323:Drivers/STM32G0xx_HAL_Driver/Src/stm32g0xx_hal_adc.c **** 
 324:Drivers/STM32G0xx_HAL_Driver/Src/stm32g0xx_hal_adc.c **** /* Private macro -------------------------------------------------------------*/
 325:Drivers/STM32G0xx_HAL_Driver/Src/stm32g0xx_hal_adc.c **** /* Private variables ---------------------------------------------------------*/
 326:Drivers/STM32G0xx_HAL_Driver/Src/stm32g0xx_hal_adc.c **** /* Private function prototypes -----------------------------------------------*/
 327:Drivers/STM32G0xx_HAL_Driver/Src/stm32g0xx_hal_adc.c **** /** @defgroup ADC_Private_Functions ADC Private Functions
 328:Drivers/STM32G0xx_HAL_Driver/Src/stm32g0xx_hal_adc.c ****   * @{
 329:Drivers/STM32G0xx_HAL_Driver/Src/stm32g0xx_hal_adc.c ****   */
 330:Drivers/STM32G0xx_HAL_Driver/Src/stm32g0xx_hal_adc.c **** static void ADC_DMAConvCplt(DMA_HandleTypeDef *hdma);
 331:Drivers/STM32G0xx_HAL_Driver/Src/stm32g0xx_hal_adc.c **** static void ADC_DMAHalfConvCplt(DMA_HandleTypeDef *hdma);
 332:Drivers/STM32G0xx_HAL_Driver/Src/stm32g0xx_hal_adc.c **** static void ADC_DMAError(DMA_HandleTypeDef *hdma);
 333:Drivers/STM32G0xx_HAL_Driver/Src/stm32g0xx_hal_adc.c **** /**
 334:Drivers/STM32G0xx_HAL_Driver/Src/stm32g0xx_hal_adc.c ****   * @}
 335:Drivers/STM32G0xx_HAL_Driver/Src/stm32g0xx_hal_adc.c ****   */
 336:Drivers/STM32G0xx_HAL_Driver/Src/stm32g0xx_hal_adc.c **** 
 337:Drivers/STM32G0xx_HAL_Driver/Src/stm32g0xx_hal_adc.c **** /* Exported functions ---------------------------------------------------------*/
 338:Drivers/STM32G0xx_HAL_Driver/Src/stm32g0xx_hal_adc.c **** 
 339:Drivers/STM32G0xx_HAL_Driver/Src/stm32g0xx_hal_adc.c **** /** @defgroup ADC_Exported_Functions ADC Exported Functions
 340:Drivers/STM32G0xx_HAL_Driver/Src/stm32g0xx_hal_adc.c ****   * @{
 341:Drivers/STM32G0xx_HAL_Driver/Src/stm32g0xx_hal_adc.c ****   */
 342:Drivers/STM32G0xx_HAL_Driver/Src/stm32g0xx_hal_adc.c **** 
 343:Drivers/STM32G0xx_HAL_Driver/Src/stm32g0xx_hal_adc.c **** /** @defgroup ADC_Exported_Functions_Group1 Initialization and de-initialization functions
 344:Drivers/STM32G0xx_HAL_Driver/Src/stm32g0xx_hal_adc.c ****   * @brief    ADC Initialization and Configuration functions
 345:Drivers/STM32G0xx_HAL_Driver/Src/stm32g0xx_hal_adc.c ****   *
 346:Drivers/STM32G0xx_HAL_Driver/Src/stm32g0xx_hal_adc.c **** @verbatim
 347:Drivers/STM32G0xx_HAL_Driver/Src/stm32g0xx_hal_adc.c ****  ===============================================================================
 348:Drivers/STM32G0xx_HAL_Driver/Src/stm32g0xx_hal_adc.c ****               ##### Initialization and de-initialization functions #####
 349:Drivers/STM32G0xx_HAL_Driver/Src/stm32g0xx_hal_adc.c ****  ===============================================================================
 350:Drivers/STM32G0xx_HAL_Driver/Src/stm32g0xx_hal_adc.c ****     [..]  This section provides functions allowing to:
 351:Drivers/STM32G0xx_HAL_Driver/Src/stm32g0xx_hal_adc.c ****       (+) Initialize and configure the ADC.
 352:Drivers/STM32G0xx_HAL_Driver/Src/stm32g0xx_hal_adc.c ****       (+) De-initialize the ADC.
 353:Drivers/STM32G0xx_HAL_Driver/Src/stm32g0xx_hal_adc.c **** @endverbatim
 354:Drivers/STM32G0xx_HAL_Driver/Src/stm32g0xx_hal_adc.c ****   * @{
 355:Drivers/STM32G0xx_HAL_Driver/Src/stm32g0xx_hal_adc.c ****   */
 356:Drivers/STM32G0xx_HAL_Driver/Src/stm32g0xx_hal_adc.c **** 
 357:Drivers/STM32G0xx_HAL_Driver/Src/stm32g0xx_hal_adc.c **** /**
 358:Drivers/STM32G0xx_HAL_Driver/Src/stm32g0xx_hal_adc.c ****   * @brief  Initialize the ADC peripheral and regular group according to
 359:Drivers/STM32G0xx_HAL_Driver/Src/stm32g0xx_hal_adc.c ****   *         parameters specified in structure "ADC_InitTypeDef".
 360:Drivers/STM32G0xx_HAL_Driver/Src/stm32g0xx_hal_adc.c ****   * @note   As prerequisite, ADC clock must be configured at RCC top level
 361:Drivers/STM32G0xx_HAL_Driver/Src/stm32g0xx_hal_adc.c ****   *         (refer to description of RCC configuration for ADC
 362:Drivers/STM32G0xx_HAL_Driver/Src/stm32g0xx_hal_adc.c ****   *         in header of this file).
 363:Drivers/STM32G0xx_HAL_Driver/Src/stm32g0xx_hal_adc.c ****   * @note   Possibility to update parameters on the fly:
 364:Drivers/STM32G0xx_HAL_Driver/Src/stm32g0xx_hal_adc.c ****   *         This function initializes the ADC MSP (HAL_ADC_MspInit()) only when
 365:Drivers/STM32G0xx_HAL_Driver/Src/stm32g0xx_hal_adc.c ****   *         coming from ADC state reset. Following calls to this function can
 366:Drivers/STM32G0xx_HAL_Driver/Src/stm32g0xx_hal_adc.c ****   *         be used to reconfigure some parameters of ADC_InitTypeDef
 367:Drivers/STM32G0xx_HAL_Driver/Src/stm32g0xx_hal_adc.c ****   *         structure on the fly, without modifying MSP configuration. If ADC
 368:Drivers/STM32G0xx_HAL_Driver/Src/stm32g0xx_hal_adc.c ****   *         MSP has to be modified again, HAL_ADC_DeInit() must be called
 369:Drivers/STM32G0xx_HAL_Driver/Src/stm32g0xx_hal_adc.c ****   *         before HAL_ADC_Init().
 370:Drivers/STM32G0xx_HAL_Driver/Src/stm32g0xx_hal_adc.c ****   *         The setting of these parameters is conditioned to ADC state.
 371:Drivers/STM32G0xx_HAL_Driver/Src/stm32g0xx_hal_adc.c ****   *         For parameters constraints, see comments of structure
 372:Drivers/STM32G0xx_HAL_Driver/Src/stm32g0xx_hal_adc.c ****   *         "ADC_InitTypeDef".
 373:Drivers/STM32G0xx_HAL_Driver/Src/stm32g0xx_hal_adc.c ****   * @note   This function configures the ADC within 2 scopes: scope of entire
ARM GAS  C:\Users\tugru\AppData\Local\Temp\ccFmcKQs.s 			page 8


 374:Drivers/STM32G0xx_HAL_Driver/Src/stm32g0xx_hal_adc.c ****   *         ADC and scope of regular group. For parameters details, see comments
 375:Drivers/STM32G0xx_HAL_Driver/Src/stm32g0xx_hal_adc.c ****   *         of structure "ADC_InitTypeDef".
 376:Drivers/STM32G0xx_HAL_Driver/Src/stm32g0xx_hal_adc.c ****   * @param hadc ADC handle
 377:Drivers/STM32G0xx_HAL_Driver/Src/stm32g0xx_hal_adc.c ****   * @retval HAL status
 378:Drivers/STM32G0xx_HAL_Driver/Src/stm32g0xx_hal_adc.c ****   */
 379:Drivers/STM32G0xx_HAL_Driver/Src/stm32g0xx_hal_adc.c **** HAL_StatusTypeDef HAL_ADC_Init(ADC_HandleTypeDef *hadc)
 380:Drivers/STM32G0xx_HAL_Driver/Src/stm32g0xx_hal_adc.c **** {
 381:Drivers/STM32G0xx_HAL_Driver/Src/stm32g0xx_hal_adc.c ****   HAL_StatusTypeDef tmp_hal_status = HAL_OK;
 382:Drivers/STM32G0xx_HAL_Driver/Src/stm32g0xx_hal_adc.c ****   uint32_t tmp_cfgr1 = 0UL;
 383:Drivers/STM32G0xx_HAL_Driver/Src/stm32g0xx_hal_adc.c ****   uint32_t tmp_cfgr2 = 0UL;
 384:Drivers/STM32G0xx_HAL_Driver/Src/stm32g0xx_hal_adc.c ****   uint32_t tmp_adc_reg_is_conversion_on_going;
 385:Drivers/STM32G0xx_HAL_Driver/Src/stm32g0xx_hal_adc.c ****   __IO uint32_t wait_loop_index = 0UL;
 386:Drivers/STM32G0xx_HAL_Driver/Src/stm32g0xx_hal_adc.c **** 
 387:Drivers/STM32G0xx_HAL_Driver/Src/stm32g0xx_hal_adc.c ****   /* Check ADC handle */
 388:Drivers/STM32G0xx_HAL_Driver/Src/stm32g0xx_hal_adc.c ****   if (hadc == NULL)
 389:Drivers/STM32G0xx_HAL_Driver/Src/stm32g0xx_hal_adc.c ****   {
 390:Drivers/STM32G0xx_HAL_Driver/Src/stm32g0xx_hal_adc.c ****     return HAL_ERROR;
 391:Drivers/STM32G0xx_HAL_Driver/Src/stm32g0xx_hal_adc.c ****   }
 392:Drivers/STM32G0xx_HAL_Driver/Src/stm32g0xx_hal_adc.c **** 
 393:Drivers/STM32G0xx_HAL_Driver/Src/stm32g0xx_hal_adc.c ****   /* Check the parameters */
 394:Drivers/STM32G0xx_HAL_Driver/Src/stm32g0xx_hal_adc.c ****   assert_param(IS_ADC_ALL_INSTANCE(hadc->Instance));
 395:Drivers/STM32G0xx_HAL_Driver/Src/stm32g0xx_hal_adc.c ****   assert_param(IS_ADC_CLOCKPRESCALER(hadc->Init.ClockPrescaler));
 396:Drivers/STM32G0xx_HAL_Driver/Src/stm32g0xx_hal_adc.c ****   assert_param(IS_ADC_RESOLUTION(hadc->Init.Resolution));
 397:Drivers/STM32G0xx_HAL_Driver/Src/stm32g0xx_hal_adc.c ****   assert_param(IS_ADC_DATA_ALIGN(hadc->Init.DataAlign));
 398:Drivers/STM32G0xx_HAL_Driver/Src/stm32g0xx_hal_adc.c ****   assert_param(IS_ADC_SCAN_MODE(hadc->Init.ScanConvMode));
 399:Drivers/STM32G0xx_HAL_Driver/Src/stm32g0xx_hal_adc.c ****   assert_param(IS_FUNCTIONAL_STATE(hadc->Init.ContinuousConvMode));
 400:Drivers/STM32G0xx_HAL_Driver/Src/stm32g0xx_hal_adc.c ****   assert_param(IS_ADC_EXTTRIG_EDGE(hadc->Init.ExternalTrigConvEdge));
 401:Drivers/STM32G0xx_HAL_Driver/Src/stm32g0xx_hal_adc.c ****   assert_param(IS_ADC_EXTTRIG(hadc->Init.ExternalTrigConv));
 402:Drivers/STM32G0xx_HAL_Driver/Src/stm32g0xx_hal_adc.c ****   assert_param(IS_FUNCTIONAL_STATE(hadc->Init.DMAContinuousRequests));
 403:Drivers/STM32G0xx_HAL_Driver/Src/stm32g0xx_hal_adc.c ****   assert_param(IS_ADC_EOC_SELECTION(hadc->Init.EOCSelection));
 404:Drivers/STM32G0xx_HAL_Driver/Src/stm32g0xx_hal_adc.c ****   assert_param(IS_ADC_OVERRUN(hadc->Init.Overrun));
 405:Drivers/STM32G0xx_HAL_Driver/Src/stm32g0xx_hal_adc.c ****   assert_param(IS_FUNCTIONAL_STATE(hadc->Init.LowPowerAutoWait));
 406:Drivers/STM32G0xx_HAL_Driver/Src/stm32g0xx_hal_adc.c ****   assert_param(IS_FUNCTIONAL_STATE(hadc->Init.LowPowerAutoPowerOff));
 407:Drivers/STM32G0xx_HAL_Driver/Src/stm32g0xx_hal_adc.c ****   assert_param(IS_ADC_SAMPLE_TIME(hadc->Init.SamplingTimeCommon1));
 408:Drivers/STM32G0xx_HAL_Driver/Src/stm32g0xx_hal_adc.c ****   assert_param(IS_ADC_SAMPLE_TIME(hadc->Init.SamplingTimeCommon2));
 409:Drivers/STM32G0xx_HAL_Driver/Src/stm32g0xx_hal_adc.c ****   assert_param(IS_FUNCTIONAL_STATE(hadc->Init.OversamplingMode));
 410:Drivers/STM32G0xx_HAL_Driver/Src/stm32g0xx_hal_adc.c ****   if (hadc->Init.OversamplingMode == ENABLE)
 411:Drivers/STM32G0xx_HAL_Driver/Src/stm32g0xx_hal_adc.c ****   {
 412:Drivers/STM32G0xx_HAL_Driver/Src/stm32g0xx_hal_adc.c ****     assert_param(IS_ADC_OVERSAMPLING_RATIO(hadc->Init.Oversampling.Ratio));
 413:Drivers/STM32G0xx_HAL_Driver/Src/stm32g0xx_hal_adc.c ****     assert_param(IS_ADC_RIGHT_BIT_SHIFT(hadc->Init.Oversampling.RightBitShift));
 414:Drivers/STM32G0xx_HAL_Driver/Src/stm32g0xx_hal_adc.c ****     assert_param(IS_ADC_TRIGGERED_OVERSAMPLING_MODE(hadc->Init.Oversampling.TriggeredMode));
 415:Drivers/STM32G0xx_HAL_Driver/Src/stm32g0xx_hal_adc.c ****   }
 416:Drivers/STM32G0xx_HAL_Driver/Src/stm32g0xx_hal_adc.c ****   assert_param(IS_ADC_TRIGGER_FREQ(hadc->Init.TriggerFrequencyMode));
 417:Drivers/STM32G0xx_HAL_Driver/Src/stm32g0xx_hal_adc.c **** 
 418:Drivers/STM32G0xx_HAL_Driver/Src/stm32g0xx_hal_adc.c ****   if (hadc->Init.ScanConvMode != ADC_SCAN_DISABLE)
 419:Drivers/STM32G0xx_HAL_Driver/Src/stm32g0xx_hal_adc.c ****   {
 420:Drivers/STM32G0xx_HAL_Driver/Src/stm32g0xx_hal_adc.c ****     assert_param(IS_FUNCTIONAL_STATE(hadc->Init.DiscontinuousConvMode));
 421:Drivers/STM32G0xx_HAL_Driver/Src/stm32g0xx_hal_adc.c **** 
 422:Drivers/STM32G0xx_HAL_Driver/Src/stm32g0xx_hal_adc.c ****     if (hadc->Init.ScanConvMode == ADC_SCAN_ENABLE)
 423:Drivers/STM32G0xx_HAL_Driver/Src/stm32g0xx_hal_adc.c ****     {
 424:Drivers/STM32G0xx_HAL_Driver/Src/stm32g0xx_hal_adc.c ****       assert_param(IS_ADC_REGULAR_NB_CONV(hadc->Init.NbrOfConversion));
 425:Drivers/STM32G0xx_HAL_Driver/Src/stm32g0xx_hal_adc.c ****     }
 426:Drivers/STM32G0xx_HAL_Driver/Src/stm32g0xx_hal_adc.c ****   }
 427:Drivers/STM32G0xx_HAL_Driver/Src/stm32g0xx_hal_adc.c **** 
 428:Drivers/STM32G0xx_HAL_Driver/Src/stm32g0xx_hal_adc.c ****   /* ADC group regular discontinuous mode can be enabled only if              */
 429:Drivers/STM32G0xx_HAL_Driver/Src/stm32g0xx_hal_adc.c ****   /* continuous mode is disabled.                                             */
 430:Drivers/STM32G0xx_HAL_Driver/Src/stm32g0xx_hal_adc.c ****   assert_param(!((hadc->Init.DiscontinuousConvMode == ENABLE) && (hadc->Init.ContinuousConvMode == 
ARM GAS  C:\Users\tugru\AppData\Local\Temp\ccFmcKQs.s 			page 9


 431:Drivers/STM32G0xx_HAL_Driver/Src/stm32g0xx_hal_adc.c **** 
 432:Drivers/STM32G0xx_HAL_Driver/Src/stm32g0xx_hal_adc.c ****   /* Actions performed only if ADC is coming from state reset:                */
 433:Drivers/STM32G0xx_HAL_Driver/Src/stm32g0xx_hal_adc.c ****   /* - Initialization of ADC MSP                                              */
 434:Drivers/STM32G0xx_HAL_Driver/Src/stm32g0xx_hal_adc.c ****   if (hadc->State == HAL_ADC_STATE_RESET)
 435:Drivers/STM32G0xx_HAL_Driver/Src/stm32g0xx_hal_adc.c ****   {
 436:Drivers/STM32G0xx_HAL_Driver/Src/stm32g0xx_hal_adc.c **** #if (USE_HAL_ADC_REGISTER_CALLBACKS == 1)
 437:Drivers/STM32G0xx_HAL_Driver/Src/stm32g0xx_hal_adc.c ****     /* Init the ADC Callback settings */
 438:Drivers/STM32G0xx_HAL_Driver/Src/stm32g0xx_hal_adc.c ****     hadc->ConvCpltCallback              = HAL_ADC_ConvCpltCallback;                 /* Legacy weak 
 439:Drivers/STM32G0xx_HAL_Driver/Src/stm32g0xx_hal_adc.c ****     hadc->ConvHalfCpltCallback          = HAL_ADC_ConvHalfCpltCallback;             /* Legacy weak 
 440:Drivers/STM32G0xx_HAL_Driver/Src/stm32g0xx_hal_adc.c ****     hadc->LevelOutOfWindowCallback      = HAL_ADC_LevelOutOfWindowCallback;         /* Legacy weak 
 441:Drivers/STM32G0xx_HAL_Driver/Src/stm32g0xx_hal_adc.c ****     hadc->ErrorCallback                 = HAL_ADC_ErrorCallback;                    /* Legacy weak 
 442:Drivers/STM32G0xx_HAL_Driver/Src/stm32g0xx_hal_adc.c ****     hadc->LevelOutOfWindow2Callback     = HAL_ADCEx_LevelOutOfWindow2Callback;      /* Legacy weak 
 443:Drivers/STM32G0xx_HAL_Driver/Src/stm32g0xx_hal_adc.c ****     hadc->LevelOutOfWindow3Callback     = HAL_ADCEx_LevelOutOfWindow3Callback;      /* Legacy weak 
 444:Drivers/STM32G0xx_HAL_Driver/Src/stm32g0xx_hal_adc.c ****     hadc->EndOfSamplingCallback         = HAL_ADCEx_EndOfSamplingCallback;          /* Legacy weak 
 445:Drivers/STM32G0xx_HAL_Driver/Src/stm32g0xx_hal_adc.c **** 
 446:Drivers/STM32G0xx_HAL_Driver/Src/stm32g0xx_hal_adc.c ****     if (hadc->MspInitCallback == NULL)
 447:Drivers/STM32G0xx_HAL_Driver/Src/stm32g0xx_hal_adc.c ****     {
 448:Drivers/STM32G0xx_HAL_Driver/Src/stm32g0xx_hal_adc.c ****       hadc->MspInitCallback = HAL_ADC_MspInit; /* Legacy weak MspInit  */
 449:Drivers/STM32G0xx_HAL_Driver/Src/stm32g0xx_hal_adc.c ****     }
 450:Drivers/STM32G0xx_HAL_Driver/Src/stm32g0xx_hal_adc.c **** 
 451:Drivers/STM32G0xx_HAL_Driver/Src/stm32g0xx_hal_adc.c ****     /* Init the low level hardware */
 452:Drivers/STM32G0xx_HAL_Driver/Src/stm32g0xx_hal_adc.c ****     hadc->MspInitCallback(hadc);
 453:Drivers/STM32G0xx_HAL_Driver/Src/stm32g0xx_hal_adc.c **** #else
 454:Drivers/STM32G0xx_HAL_Driver/Src/stm32g0xx_hal_adc.c ****     /* Init the low level hardware */
 455:Drivers/STM32G0xx_HAL_Driver/Src/stm32g0xx_hal_adc.c ****     HAL_ADC_MspInit(hadc);
 456:Drivers/STM32G0xx_HAL_Driver/Src/stm32g0xx_hal_adc.c **** #endif /* USE_HAL_ADC_REGISTER_CALLBACKS */
 457:Drivers/STM32G0xx_HAL_Driver/Src/stm32g0xx_hal_adc.c **** 
 458:Drivers/STM32G0xx_HAL_Driver/Src/stm32g0xx_hal_adc.c ****     /* Set ADC error code to none */
 459:Drivers/STM32G0xx_HAL_Driver/Src/stm32g0xx_hal_adc.c ****     ADC_CLEAR_ERRORCODE(hadc);
 460:Drivers/STM32G0xx_HAL_Driver/Src/stm32g0xx_hal_adc.c **** 
 461:Drivers/STM32G0xx_HAL_Driver/Src/stm32g0xx_hal_adc.c ****     /* Initialize Lock */
 462:Drivers/STM32G0xx_HAL_Driver/Src/stm32g0xx_hal_adc.c ****     hadc->Lock = HAL_UNLOCKED;
 463:Drivers/STM32G0xx_HAL_Driver/Src/stm32g0xx_hal_adc.c ****   }
 464:Drivers/STM32G0xx_HAL_Driver/Src/stm32g0xx_hal_adc.c **** 
 465:Drivers/STM32G0xx_HAL_Driver/Src/stm32g0xx_hal_adc.c ****   if (LL_ADC_IsInternalRegulatorEnabled(hadc->Instance) == 0UL)
 466:Drivers/STM32G0xx_HAL_Driver/Src/stm32g0xx_hal_adc.c ****   {
 467:Drivers/STM32G0xx_HAL_Driver/Src/stm32g0xx_hal_adc.c ****     /* Enable ADC internal voltage regulator */
 468:Drivers/STM32G0xx_HAL_Driver/Src/stm32g0xx_hal_adc.c ****     LL_ADC_EnableInternalRegulator(hadc->Instance);
 469:Drivers/STM32G0xx_HAL_Driver/Src/stm32g0xx_hal_adc.c **** 
 470:Drivers/STM32G0xx_HAL_Driver/Src/stm32g0xx_hal_adc.c ****     /* Delay for ADC stabilization time */
 471:Drivers/STM32G0xx_HAL_Driver/Src/stm32g0xx_hal_adc.c ****     /* Wait loop initialization and execution */
 472:Drivers/STM32G0xx_HAL_Driver/Src/stm32g0xx_hal_adc.c ****     /* Note: Variable divided by 2 to compensate partially              */
 473:Drivers/STM32G0xx_HAL_Driver/Src/stm32g0xx_hal_adc.c ****     /*       CPU processing cycles, scaling in us split to not          */
 474:Drivers/STM32G0xx_HAL_Driver/Src/stm32g0xx_hal_adc.c ****     /*       exceed 32 bits register capacity and handle low frequency. */
 475:Drivers/STM32G0xx_HAL_Driver/Src/stm32g0xx_hal_adc.c ****     wait_loop_index = ((LL_ADC_DELAY_INTERNAL_REGUL_STAB_US / 10UL) * ((SystemCoreClock / (100000UL
 476:Drivers/STM32G0xx_HAL_Driver/Src/stm32g0xx_hal_adc.c ****     while (wait_loop_index != 0UL)
 477:Drivers/STM32G0xx_HAL_Driver/Src/stm32g0xx_hal_adc.c ****     {
 478:Drivers/STM32G0xx_HAL_Driver/Src/stm32g0xx_hal_adc.c ****       wait_loop_index--;
 479:Drivers/STM32G0xx_HAL_Driver/Src/stm32g0xx_hal_adc.c ****     }
 480:Drivers/STM32G0xx_HAL_Driver/Src/stm32g0xx_hal_adc.c ****   }
 481:Drivers/STM32G0xx_HAL_Driver/Src/stm32g0xx_hal_adc.c **** 
 482:Drivers/STM32G0xx_HAL_Driver/Src/stm32g0xx_hal_adc.c ****   /* Verification that ADC voltage regulator is correctly enabled, whether    */
 483:Drivers/STM32G0xx_HAL_Driver/Src/stm32g0xx_hal_adc.c ****   /* or not ADC is coming from state reset (if any potential problem of       */
 484:Drivers/STM32G0xx_HAL_Driver/Src/stm32g0xx_hal_adc.c ****   /* clocking, voltage regulator would not be enabled).                       */
 485:Drivers/STM32G0xx_HAL_Driver/Src/stm32g0xx_hal_adc.c ****   if (LL_ADC_IsInternalRegulatorEnabled(hadc->Instance) == 0UL)
 486:Drivers/STM32G0xx_HAL_Driver/Src/stm32g0xx_hal_adc.c ****   {
 487:Drivers/STM32G0xx_HAL_Driver/Src/stm32g0xx_hal_adc.c ****     /* Update ADC state machine to error */
ARM GAS  C:\Users\tugru\AppData\Local\Temp\ccFmcKQs.s 			page 10


 488:Drivers/STM32G0xx_HAL_Driver/Src/stm32g0xx_hal_adc.c ****     SET_BIT(hadc->State, HAL_ADC_STATE_ERROR_INTERNAL);
 489:Drivers/STM32G0xx_HAL_Driver/Src/stm32g0xx_hal_adc.c **** 
 490:Drivers/STM32G0xx_HAL_Driver/Src/stm32g0xx_hal_adc.c ****     /* Set ADC error code to ADC peripheral internal error */
 491:Drivers/STM32G0xx_HAL_Driver/Src/stm32g0xx_hal_adc.c ****     SET_BIT(hadc->ErrorCode, HAL_ADC_ERROR_INTERNAL);
 492:Drivers/STM32G0xx_HAL_Driver/Src/stm32g0xx_hal_adc.c **** 
 493:Drivers/STM32G0xx_HAL_Driver/Src/stm32g0xx_hal_adc.c ****     tmp_hal_status = HAL_ERROR;
 494:Drivers/STM32G0xx_HAL_Driver/Src/stm32g0xx_hal_adc.c ****   }
 495:Drivers/STM32G0xx_HAL_Driver/Src/stm32g0xx_hal_adc.c **** 
 496:Drivers/STM32G0xx_HAL_Driver/Src/stm32g0xx_hal_adc.c ****   /* Configuration of ADC parameters if previous preliminary actions are      */
 497:Drivers/STM32G0xx_HAL_Driver/Src/stm32g0xx_hal_adc.c ****   /* correctly completed and if there is no conversion on going on regular    */
 498:Drivers/STM32G0xx_HAL_Driver/Src/stm32g0xx_hal_adc.c ****   /* group (ADC may already be enabled at this point if HAL_ADC_Init() is     */
 499:Drivers/STM32G0xx_HAL_Driver/Src/stm32g0xx_hal_adc.c ****   /* called to update a parameter on the fly).                                */
 500:Drivers/STM32G0xx_HAL_Driver/Src/stm32g0xx_hal_adc.c ****   tmp_adc_reg_is_conversion_on_going = LL_ADC_REG_IsConversionOngoing(hadc->Instance);
 501:Drivers/STM32G0xx_HAL_Driver/Src/stm32g0xx_hal_adc.c **** 
 502:Drivers/STM32G0xx_HAL_Driver/Src/stm32g0xx_hal_adc.c ****   if (((hadc->State & HAL_ADC_STATE_ERROR_INTERNAL) == 0UL)
 503:Drivers/STM32G0xx_HAL_Driver/Src/stm32g0xx_hal_adc.c ****       && (tmp_adc_reg_is_conversion_on_going == 0UL)
 504:Drivers/STM32G0xx_HAL_Driver/Src/stm32g0xx_hal_adc.c ****      )
 505:Drivers/STM32G0xx_HAL_Driver/Src/stm32g0xx_hal_adc.c ****   {
 506:Drivers/STM32G0xx_HAL_Driver/Src/stm32g0xx_hal_adc.c ****     /* Set ADC state */
 507:Drivers/STM32G0xx_HAL_Driver/Src/stm32g0xx_hal_adc.c ****     ADC_STATE_CLR_SET(hadc->State,
 508:Drivers/STM32G0xx_HAL_Driver/Src/stm32g0xx_hal_adc.c ****                       HAL_ADC_STATE_REG_BUSY,
 509:Drivers/STM32G0xx_HAL_Driver/Src/stm32g0xx_hal_adc.c ****                       HAL_ADC_STATE_BUSY_INTERNAL);
 510:Drivers/STM32G0xx_HAL_Driver/Src/stm32g0xx_hal_adc.c **** 
 511:Drivers/STM32G0xx_HAL_Driver/Src/stm32g0xx_hal_adc.c ****     /* Configuration of common ADC parameters                                 */
 512:Drivers/STM32G0xx_HAL_Driver/Src/stm32g0xx_hal_adc.c **** 
 513:Drivers/STM32G0xx_HAL_Driver/Src/stm32g0xx_hal_adc.c ****     /* Parameters update conditioned to ADC state:                            */
 514:Drivers/STM32G0xx_HAL_Driver/Src/stm32g0xx_hal_adc.c ****     /* Parameters that can be updated only when ADC is disabled:              */
 515:Drivers/STM32G0xx_HAL_Driver/Src/stm32g0xx_hal_adc.c ****     /*  - Internal voltage regulator (no parameter in HAL ADC init structure) */
 516:Drivers/STM32G0xx_HAL_Driver/Src/stm32g0xx_hal_adc.c ****     /*  - Clock configuration                                                 */
 517:Drivers/STM32G0xx_HAL_Driver/Src/stm32g0xx_hal_adc.c ****     /*  - ADC resolution                                                      */
 518:Drivers/STM32G0xx_HAL_Driver/Src/stm32g0xx_hal_adc.c ****     /*  - Oversampling                                                        */
 519:Drivers/STM32G0xx_HAL_Driver/Src/stm32g0xx_hal_adc.c ****     /*  - discontinuous mode                                                  */
 520:Drivers/STM32G0xx_HAL_Driver/Src/stm32g0xx_hal_adc.c ****     /*  - LowPowerAutoWait mode                                               */
 521:Drivers/STM32G0xx_HAL_Driver/Src/stm32g0xx_hal_adc.c ****     /*  - LowPowerAutoPowerOff mode                                           */
 522:Drivers/STM32G0xx_HAL_Driver/Src/stm32g0xx_hal_adc.c ****     /*  - continuous conversion mode                                          */
 523:Drivers/STM32G0xx_HAL_Driver/Src/stm32g0xx_hal_adc.c ****     /*  - overrun                                                             */
 524:Drivers/STM32G0xx_HAL_Driver/Src/stm32g0xx_hal_adc.c ****     /*  - external trigger to start conversion                                */
 525:Drivers/STM32G0xx_HAL_Driver/Src/stm32g0xx_hal_adc.c ****     /*  - external trigger polarity                                           */
 526:Drivers/STM32G0xx_HAL_Driver/Src/stm32g0xx_hal_adc.c ****     /*  - data alignment                                                      */
 527:Drivers/STM32G0xx_HAL_Driver/Src/stm32g0xx_hal_adc.c ****     /*  - resolution                                                          */
 528:Drivers/STM32G0xx_HAL_Driver/Src/stm32g0xx_hal_adc.c ****     /*  - scan direction                                                      */
 529:Drivers/STM32G0xx_HAL_Driver/Src/stm32g0xx_hal_adc.c ****     /*  - DMA continuous request                                              */
 530:Drivers/STM32G0xx_HAL_Driver/Src/stm32g0xx_hal_adc.c ****     /*  - Trigger frequency mode                                              */
 531:Drivers/STM32G0xx_HAL_Driver/Src/stm32g0xx_hal_adc.c ****     /* Note: If low power mode AutoPowerOff is enabled, ADC enable            */
 532:Drivers/STM32G0xx_HAL_Driver/Src/stm32g0xx_hal_adc.c ****     /*       and disable phases are performed automatically by hardware       */
 533:Drivers/STM32G0xx_HAL_Driver/Src/stm32g0xx_hal_adc.c ****     /*       (in this case, flag ADC_FLAG_RDY is not set).                    */
 534:Drivers/STM32G0xx_HAL_Driver/Src/stm32g0xx_hal_adc.c ****     if (LL_ADC_IsEnabled(hadc->Instance) == 0UL)
 535:Drivers/STM32G0xx_HAL_Driver/Src/stm32g0xx_hal_adc.c ****     {
 536:Drivers/STM32G0xx_HAL_Driver/Src/stm32g0xx_hal_adc.c ****       /* Some parameters of this register are not reset, since they are set   */
 537:Drivers/STM32G0xx_HAL_Driver/Src/stm32g0xx_hal_adc.c ****       /* by other functions and must be kept in case of usage of this         */
 538:Drivers/STM32G0xx_HAL_Driver/Src/stm32g0xx_hal_adc.c ****       /* function on the fly (update of a parameter of ADC_InitTypeDef        */
 539:Drivers/STM32G0xx_HAL_Driver/Src/stm32g0xx_hal_adc.c ****       /* without needing to reconfigure all other ADC groups/channels         */
 540:Drivers/STM32G0xx_HAL_Driver/Src/stm32g0xx_hal_adc.c ****       /* parameters):                                                         */
 541:Drivers/STM32G0xx_HAL_Driver/Src/stm32g0xx_hal_adc.c ****       /*   - internal measurement paths (VrefInt, ...)                        */
 542:Drivers/STM32G0xx_HAL_Driver/Src/stm32g0xx_hal_adc.c ****       /*     (set into HAL_ADC_ConfigChannel() )                              */
 543:Drivers/STM32G0xx_HAL_Driver/Src/stm32g0xx_hal_adc.c **** 
 544:Drivers/STM32G0xx_HAL_Driver/Src/stm32g0xx_hal_adc.c ****       tmp_cfgr1 |= (hadc->Init.Resolution                                          |
ARM GAS  C:\Users\tugru\AppData\Local\Temp\ccFmcKQs.s 			page 11


 545:Drivers/STM32G0xx_HAL_Driver/Src/stm32g0xx_hal_adc.c ****                     ADC_CFGR1_AUTOWAIT((uint32_t)hadc->Init.LowPowerAutoWait)      |
 546:Drivers/STM32G0xx_HAL_Driver/Src/stm32g0xx_hal_adc.c ****                     ADC_CFGR1_AUTOOFF((uint32_t)hadc->Init.LowPowerAutoPowerOff)   |
 547:Drivers/STM32G0xx_HAL_Driver/Src/stm32g0xx_hal_adc.c ****                     ADC_CFGR1_CONTINUOUS((uint32_t)hadc->Init.ContinuousConvMode)  |
 548:Drivers/STM32G0xx_HAL_Driver/Src/stm32g0xx_hal_adc.c ****                     ADC_CFGR1_OVERRUN(hadc->Init.Overrun)                          |
 549:Drivers/STM32G0xx_HAL_Driver/Src/stm32g0xx_hal_adc.c ****                     hadc->Init.DataAlign                                           |
 550:Drivers/STM32G0xx_HAL_Driver/Src/stm32g0xx_hal_adc.c ****                     ADC_SCAN_SEQ_MODE(hadc->Init.ScanConvMode)                     |
 551:Drivers/STM32G0xx_HAL_Driver/Src/stm32g0xx_hal_adc.c ****                     ADC_CFGR1_DMACONTREQ((uint32_t)hadc->Init.DMAContinuousRequests));
 552:Drivers/STM32G0xx_HAL_Driver/Src/stm32g0xx_hal_adc.c **** 
 553:Drivers/STM32G0xx_HAL_Driver/Src/stm32g0xx_hal_adc.c ****       /* Update setting of discontinuous mode only if continuous mode is disabled */
 554:Drivers/STM32G0xx_HAL_Driver/Src/stm32g0xx_hal_adc.c ****       if (hadc->Init.DiscontinuousConvMode == ENABLE)
 555:Drivers/STM32G0xx_HAL_Driver/Src/stm32g0xx_hal_adc.c ****       {
 556:Drivers/STM32G0xx_HAL_Driver/Src/stm32g0xx_hal_adc.c ****         if (hadc->Init.ContinuousConvMode == DISABLE)
 557:Drivers/STM32G0xx_HAL_Driver/Src/stm32g0xx_hal_adc.c ****         {
 558:Drivers/STM32G0xx_HAL_Driver/Src/stm32g0xx_hal_adc.c ****           /* Enable the selected ADC group regular discontinuous mode */
 559:Drivers/STM32G0xx_HAL_Driver/Src/stm32g0xx_hal_adc.c ****           tmp_cfgr1 |= ADC_CFGR1_DISCEN;
 560:Drivers/STM32G0xx_HAL_Driver/Src/stm32g0xx_hal_adc.c ****         }
 561:Drivers/STM32G0xx_HAL_Driver/Src/stm32g0xx_hal_adc.c ****         else
 562:Drivers/STM32G0xx_HAL_Driver/Src/stm32g0xx_hal_adc.c ****         {
 563:Drivers/STM32G0xx_HAL_Driver/Src/stm32g0xx_hal_adc.c ****           /* ADC regular group discontinuous was intended to be enabled,        */
 564:Drivers/STM32G0xx_HAL_Driver/Src/stm32g0xx_hal_adc.c ****           /* but ADC regular group modes continuous and sequencer discontinuous */
 565:Drivers/STM32G0xx_HAL_Driver/Src/stm32g0xx_hal_adc.c ****           /* cannot be enabled simultaneously.                                  */
 566:Drivers/STM32G0xx_HAL_Driver/Src/stm32g0xx_hal_adc.c **** 
 567:Drivers/STM32G0xx_HAL_Driver/Src/stm32g0xx_hal_adc.c ****           /* Update ADC state machine to error */
 568:Drivers/STM32G0xx_HAL_Driver/Src/stm32g0xx_hal_adc.c ****           SET_BIT(hadc->State, HAL_ADC_STATE_ERROR_CONFIG);
 569:Drivers/STM32G0xx_HAL_Driver/Src/stm32g0xx_hal_adc.c **** 
 570:Drivers/STM32G0xx_HAL_Driver/Src/stm32g0xx_hal_adc.c ****           /* Set ADC error code to ADC peripheral internal error */
 571:Drivers/STM32G0xx_HAL_Driver/Src/stm32g0xx_hal_adc.c ****           SET_BIT(hadc->ErrorCode, HAL_ADC_ERROR_INTERNAL);
 572:Drivers/STM32G0xx_HAL_Driver/Src/stm32g0xx_hal_adc.c ****         }
 573:Drivers/STM32G0xx_HAL_Driver/Src/stm32g0xx_hal_adc.c ****       }
 574:Drivers/STM32G0xx_HAL_Driver/Src/stm32g0xx_hal_adc.c **** 
 575:Drivers/STM32G0xx_HAL_Driver/Src/stm32g0xx_hal_adc.c ****       /* Enable external trigger if trigger selection is different of software  */
 576:Drivers/STM32G0xx_HAL_Driver/Src/stm32g0xx_hal_adc.c ****       /* start.                                                                 */
 577:Drivers/STM32G0xx_HAL_Driver/Src/stm32g0xx_hal_adc.c ****       /* Note: This configuration keeps the hardware feature of parameter       */
 578:Drivers/STM32G0xx_HAL_Driver/Src/stm32g0xx_hal_adc.c ****       /*       ExternalTrigConvEdge "trigger edge none" equivalent to           */
 579:Drivers/STM32G0xx_HAL_Driver/Src/stm32g0xx_hal_adc.c ****       /*       software start.                                                  */
 580:Drivers/STM32G0xx_HAL_Driver/Src/stm32g0xx_hal_adc.c ****       if (hadc->Init.ExternalTrigConv != ADC_SOFTWARE_START)
 581:Drivers/STM32G0xx_HAL_Driver/Src/stm32g0xx_hal_adc.c ****       {
 582:Drivers/STM32G0xx_HAL_Driver/Src/stm32g0xx_hal_adc.c ****         tmp_cfgr1 |= ((hadc->Init.ExternalTrigConv & ADC_CFGR1_EXTSEL) |
 583:Drivers/STM32G0xx_HAL_Driver/Src/stm32g0xx_hal_adc.c ****                       hadc->Init.ExternalTrigConvEdge);
 584:Drivers/STM32G0xx_HAL_Driver/Src/stm32g0xx_hal_adc.c ****       }
 585:Drivers/STM32G0xx_HAL_Driver/Src/stm32g0xx_hal_adc.c **** 
 586:Drivers/STM32G0xx_HAL_Driver/Src/stm32g0xx_hal_adc.c ****       /* Update ADC configuration register with previous settings */
 587:Drivers/STM32G0xx_HAL_Driver/Src/stm32g0xx_hal_adc.c ****       MODIFY_REG(hadc->Instance->CFGR1,
 588:Drivers/STM32G0xx_HAL_Driver/Src/stm32g0xx_hal_adc.c ****                  ADC_CFGR1_RES       |
 589:Drivers/STM32G0xx_HAL_Driver/Src/stm32g0xx_hal_adc.c ****                  ADC_CFGR1_DISCEN    |
 590:Drivers/STM32G0xx_HAL_Driver/Src/stm32g0xx_hal_adc.c ****                  ADC_CFGR1_CHSELRMOD |
 591:Drivers/STM32G0xx_HAL_Driver/Src/stm32g0xx_hal_adc.c ****                  ADC_CFGR1_AUTOFF    |
 592:Drivers/STM32G0xx_HAL_Driver/Src/stm32g0xx_hal_adc.c ****                  ADC_CFGR1_WAIT      |
 593:Drivers/STM32G0xx_HAL_Driver/Src/stm32g0xx_hal_adc.c ****                  ADC_CFGR1_CONT      |
 594:Drivers/STM32G0xx_HAL_Driver/Src/stm32g0xx_hal_adc.c ****                  ADC_CFGR1_OVRMOD    |
 595:Drivers/STM32G0xx_HAL_Driver/Src/stm32g0xx_hal_adc.c ****                  ADC_CFGR1_EXTSEL    |
 596:Drivers/STM32G0xx_HAL_Driver/Src/stm32g0xx_hal_adc.c ****                  ADC_CFGR1_EXTEN     |
 597:Drivers/STM32G0xx_HAL_Driver/Src/stm32g0xx_hal_adc.c ****                  ADC_CFGR1_ALIGN     |
 598:Drivers/STM32G0xx_HAL_Driver/Src/stm32g0xx_hal_adc.c ****                  ADC_CFGR1_SCANDIR   |
 599:Drivers/STM32G0xx_HAL_Driver/Src/stm32g0xx_hal_adc.c ****                  ADC_CFGR1_DMACFG,
 600:Drivers/STM32G0xx_HAL_Driver/Src/stm32g0xx_hal_adc.c ****                  tmp_cfgr1);
 601:Drivers/STM32G0xx_HAL_Driver/Src/stm32g0xx_hal_adc.c **** 
ARM GAS  C:\Users\tugru\AppData\Local\Temp\ccFmcKQs.s 			page 12


 602:Drivers/STM32G0xx_HAL_Driver/Src/stm32g0xx_hal_adc.c ****       tmp_cfgr2 |= ((hadc->Init.ClockPrescaler & ADC_CFGR2_CKMODE) |
 603:Drivers/STM32G0xx_HAL_Driver/Src/stm32g0xx_hal_adc.c ****                     hadc->Init.TriggerFrequencyMode
 604:Drivers/STM32G0xx_HAL_Driver/Src/stm32g0xx_hal_adc.c ****                    );
 605:Drivers/STM32G0xx_HAL_Driver/Src/stm32g0xx_hal_adc.c **** 
 606:Drivers/STM32G0xx_HAL_Driver/Src/stm32g0xx_hal_adc.c ****       if (hadc->Init.OversamplingMode == ENABLE)
 607:Drivers/STM32G0xx_HAL_Driver/Src/stm32g0xx_hal_adc.c ****       {
 608:Drivers/STM32G0xx_HAL_Driver/Src/stm32g0xx_hal_adc.c ****         tmp_cfgr2 |= (ADC_CFGR2_OVSE |
 609:Drivers/STM32G0xx_HAL_Driver/Src/stm32g0xx_hal_adc.c ****                       (hadc->Init.ClockPrescaler & ADC_CFGR2_CKMODE) |
 610:Drivers/STM32G0xx_HAL_Driver/Src/stm32g0xx_hal_adc.c ****                       hadc->Init.Oversampling.Ratio         |
 611:Drivers/STM32G0xx_HAL_Driver/Src/stm32g0xx_hal_adc.c ****                       hadc->Init.Oversampling.RightBitShift |
 612:Drivers/STM32G0xx_HAL_Driver/Src/stm32g0xx_hal_adc.c ****                       hadc->Init.Oversampling.TriggeredMode
 613:Drivers/STM32G0xx_HAL_Driver/Src/stm32g0xx_hal_adc.c ****                      );
 614:Drivers/STM32G0xx_HAL_Driver/Src/stm32g0xx_hal_adc.c ****       }
 615:Drivers/STM32G0xx_HAL_Driver/Src/stm32g0xx_hal_adc.c **** 
 616:Drivers/STM32G0xx_HAL_Driver/Src/stm32g0xx_hal_adc.c ****       MODIFY_REG(hadc->Instance->CFGR2,
 617:Drivers/STM32G0xx_HAL_Driver/Src/stm32g0xx_hal_adc.c ****                  ADC_CFGR2_CKMODE |
 618:Drivers/STM32G0xx_HAL_Driver/Src/stm32g0xx_hal_adc.c ****                  ADC_CFGR2_LFTRIG |
 619:Drivers/STM32G0xx_HAL_Driver/Src/stm32g0xx_hal_adc.c ****                  ADC_CFGR2_OVSE   |
 620:Drivers/STM32G0xx_HAL_Driver/Src/stm32g0xx_hal_adc.c ****                  ADC_CFGR2_OVSR   |
 621:Drivers/STM32G0xx_HAL_Driver/Src/stm32g0xx_hal_adc.c ****                  ADC_CFGR2_OVSS   |
 622:Drivers/STM32G0xx_HAL_Driver/Src/stm32g0xx_hal_adc.c ****                  ADC_CFGR2_TOVS,
 623:Drivers/STM32G0xx_HAL_Driver/Src/stm32g0xx_hal_adc.c ****                  tmp_cfgr2);
 624:Drivers/STM32G0xx_HAL_Driver/Src/stm32g0xx_hal_adc.c **** 
 625:Drivers/STM32G0xx_HAL_Driver/Src/stm32g0xx_hal_adc.c ****       /* Configuration of ADC clock mode: asynchronous clock source           */
 626:Drivers/STM32G0xx_HAL_Driver/Src/stm32g0xx_hal_adc.c ****       /* with selectable prescaler.                                           */
 627:Drivers/STM32G0xx_HAL_Driver/Src/stm32g0xx_hal_adc.c ****       if (((hadc->Init.ClockPrescaler) != ADC_CLOCK_SYNC_PCLK_DIV1) &&
 628:Drivers/STM32G0xx_HAL_Driver/Src/stm32g0xx_hal_adc.c ****           ((hadc->Init.ClockPrescaler) != ADC_CLOCK_SYNC_PCLK_DIV2) &&
 629:Drivers/STM32G0xx_HAL_Driver/Src/stm32g0xx_hal_adc.c ****           ((hadc->Init.ClockPrescaler) != ADC_CLOCK_SYNC_PCLK_DIV4))
 630:Drivers/STM32G0xx_HAL_Driver/Src/stm32g0xx_hal_adc.c ****       {
 631:Drivers/STM32G0xx_HAL_Driver/Src/stm32g0xx_hal_adc.c ****         MODIFY_REG(ADC1_COMMON->CCR,
 632:Drivers/STM32G0xx_HAL_Driver/Src/stm32g0xx_hal_adc.c ****                    ADC_CCR_PRESC,
 633:Drivers/STM32G0xx_HAL_Driver/Src/stm32g0xx_hal_adc.c ****                    hadc->Init.ClockPrescaler & ADC_CCR_PRESC);
 634:Drivers/STM32G0xx_HAL_Driver/Src/stm32g0xx_hal_adc.c ****       }
 635:Drivers/STM32G0xx_HAL_Driver/Src/stm32g0xx_hal_adc.c ****     }
 636:Drivers/STM32G0xx_HAL_Driver/Src/stm32g0xx_hal_adc.c **** 
 637:Drivers/STM32G0xx_HAL_Driver/Src/stm32g0xx_hal_adc.c ****     /* Channel sampling time configuration */
 638:Drivers/STM32G0xx_HAL_Driver/Src/stm32g0xx_hal_adc.c ****     LL_ADC_SetSamplingTimeCommonChannels(hadc->Instance, LL_ADC_SAMPLINGTIME_COMMON_1, hadc->Init.S
 639:Drivers/STM32G0xx_HAL_Driver/Src/stm32g0xx_hal_adc.c ****     LL_ADC_SetSamplingTimeCommonChannels(hadc->Instance, LL_ADC_SAMPLINGTIME_COMMON_2, hadc->Init.S
 640:Drivers/STM32G0xx_HAL_Driver/Src/stm32g0xx_hal_adc.c **** 
 641:Drivers/STM32G0xx_HAL_Driver/Src/stm32g0xx_hal_adc.c ****     /* Configuration of regular group sequencer:                              */
 642:Drivers/STM32G0xx_HAL_Driver/Src/stm32g0xx_hal_adc.c ****     /* - if scan mode is disabled, regular channels sequence length is set to */
 643:Drivers/STM32G0xx_HAL_Driver/Src/stm32g0xx_hal_adc.c ****     /*   0x00: 1 channel converted (channel on regular rank 1)                */
 644:Drivers/STM32G0xx_HAL_Driver/Src/stm32g0xx_hal_adc.c ****     /*   Parameter "NbrOfConversion" is discarded.                            */
 645:Drivers/STM32G0xx_HAL_Driver/Src/stm32g0xx_hal_adc.c ****     /*   Note: Scan mode is not present by hardware on this device, but       */
 646:Drivers/STM32G0xx_HAL_Driver/Src/stm32g0xx_hal_adc.c ****     /*   emulated by software for alignment over all STM32 devices.           */
 647:Drivers/STM32G0xx_HAL_Driver/Src/stm32g0xx_hal_adc.c ****     /* - if scan mode is enabled, regular channels sequence length is set to  */
 648:Drivers/STM32G0xx_HAL_Driver/Src/stm32g0xx_hal_adc.c ****     /*   parameter "NbrOfConversion".                                         */
 649:Drivers/STM32G0xx_HAL_Driver/Src/stm32g0xx_hal_adc.c ****     /*   Channels must be configured into each rank using function            */
 650:Drivers/STM32G0xx_HAL_Driver/Src/stm32g0xx_hal_adc.c ****     /*   "HAL_ADC_ConfigChannel()".                                           */
 651:Drivers/STM32G0xx_HAL_Driver/Src/stm32g0xx_hal_adc.c ****     if (hadc->Init.ScanConvMode == ADC_SCAN_DISABLE)
 652:Drivers/STM32G0xx_HAL_Driver/Src/stm32g0xx_hal_adc.c ****     {
 653:Drivers/STM32G0xx_HAL_Driver/Src/stm32g0xx_hal_adc.c ****       /* Set sequencer scan length by clearing ranks above rank 1             */
 654:Drivers/STM32G0xx_HAL_Driver/Src/stm32g0xx_hal_adc.c ****       /* and do not modify rank 1 value.                                      */
 655:Drivers/STM32G0xx_HAL_Driver/Src/stm32g0xx_hal_adc.c ****       SET_BIT(hadc->Instance->CHSELR,
 656:Drivers/STM32G0xx_HAL_Driver/Src/stm32g0xx_hal_adc.c ****               ADC_CHSELR_SQ2_TO_SQ8);
 657:Drivers/STM32G0xx_HAL_Driver/Src/stm32g0xx_hal_adc.c ****     }
 658:Drivers/STM32G0xx_HAL_Driver/Src/stm32g0xx_hal_adc.c ****     else if (hadc->Init.ScanConvMode == ADC_SCAN_ENABLE)
ARM GAS  C:\Users\tugru\AppData\Local\Temp\ccFmcKQs.s 			page 13


 659:Drivers/STM32G0xx_HAL_Driver/Src/stm32g0xx_hal_adc.c ****     {
 660:Drivers/STM32G0xx_HAL_Driver/Src/stm32g0xx_hal_adc.c ****       /* Set ADC group regular sequencer:                                   */
 661:Drivers/STM32G0xx_HAL_Driver/Src/stm32g0xx_hal_adc.c ****       /*  - Set ADC group regular sequencer to value memorized              */
 662:Drivers/STM32G0xx_HAL_Driver/Src/stm32g0xx_hal_adc.c ****       /*    in HAL ADC handle                                               */
 663:Drivers/STM32G0xx_HAL_Driver/Src/stm32g0xx_hal_adc.c ****       /*    Note: This value maybe be initialized at a unknown value,       */
 664:Drivers/STM32G0xx_HAL_Driver/Src/stm32g0xx_hal_adc.c ****       /*          therefore after the first call of "HAL_ADC_Init()",       */
 665:Drivers/STM32G0xx_HAL_Driver/Src/stm32g0xx_hal_adc.c ****       /*          each rank corresponding to parameter "NbrOfConversion"    */
 666:Drivers/STM32G0xx_HAL_Driver/Src/stm32g0xx_hal_adc.c ****       /*          must be set using "HAL_ADC_ConfigChannel()".              */
 667:Drivers/STM32G0xx_HAL_Driver/Src/stm32g0xx_hal_adc.c ****       /*  - Set sequencer scan length by clearing ranks above maximum rank  */
 668:Drivers/STM32G0xx_HAL_Driver/Src/stm32g0xx_hal_adc.c ****       /*    and do not modify other ranks value.                            */
 669:Drivers/STM32G0xx_HAL_Driver/Src/stm32g0xx_hal_adc.c ****       MODIFY_REG(hadc->Instance->CHSELR,
 670:Drivers/STM32G0xx_HAL_Driver/Src/stm32g0xx_hal_adc.c ****                  ADC_CHSELR_SQ_ALL,
 671:Drivers/STM32G0xx_HAL_Driver/Src/stm32g0xx_hal_adc.c ****                  (ADC_CHSELR_SQ2_TO_SQ8 << (((hadc->Init.NbrOfConversion - 1UL) * ADC_REGULAR_RANK_
 672:Drivers/STM32G0xx_HAL_Driver/Src/stm32g0xx_hal_adc.c ****                  | (hadc->ADCGroupRegularSequencerRanks)
 673:Drivers/STM32G0xx_HAL_Driver/Src/stm32g0xx_hal_adc.c ****                 );
 674:Drivers/STM32G0xx_HAL_Driver/Src/stm32g0xx_hal_adc.c ****     }
 675:Drivers/STM32G0xx_HAL_Driver/Src/stm32g0xx_hal_adc.c ****     else
 676:Drivers/STM32G0xx_HAL_Driver/Src/stm32g0xx_hal_adc.c ****     {
 677:Drivers/STM32G0xx_HAL_Driver/Src/stm32g0xx_hal_adc.c ****       /* Nothing to do */
 678:Drivers/STM32G0xx_HAL_Driver/Src/stm32g0xx_hal_adc.c ****     }
 679:Drivers/STM32G0xx_HAL_Driver/Src/stm32g0xx_hal_adc.c **** 
 680:Drivers/STM32G0xx_HAL_Driver/Src/stm32g0xx_hal_adc.c ****     /* Check back that ADC registers have effectively been configured to      */
 681:Drivers/STM32G0xx_HAL_Driver/Src/stm32g0xx_hal_adc.c ****     /* ensure of no potential problem of ADC core peripheral clocking.        */
 682:Drivers/STM32G0xx_HAL_Driver/Src/stm32g0xx_hal_adc.c ****     if (LL_ADC_GetSamplingTimeCommonChannels(hadc->Instance, LL_ADC_SAMPLINGTIME_COMMON_1)
 683:Drivers/STM32G0xx_HAL_Driver/Src/stm32g0xx_hal_adc.c ****         == hadc->Init.SamplingTimeCommon1)
 684:Drivers/STM32G0xx_HAL_Driver/Src/stm32g0xx_hal_adc.c ****     {
 685:Drivers/STM32G0xx_HAL_Driver/Src/stm32g0xx_hal_adc.c ****       /* Set ADC error code to none */
 686:Drivers/STM32G0xx_HAL_Driver/Src/stm32g0xx_hal_adc.c ****       ADC_CLEAR_ERRORCODE(hadc);
 687:Drivers/STM32G0xx_HAL_Driver/Src/stm32g0xx_hal_adc.c **** 
 688:Drivers/STM32G0xx_HAL_Driver/Src/stm32g0xx_hal_adc.c ****       /* Set the ADC state */
 689:Drivers/STM32G0xx_HAL_Driver/Src/stm32g0xx_hal_adc.c ****       ADC_STATE_CLR_SET(hadc->State,
 690:Drivers/STM32G0xx_HAL_Driver/Src/stm32g0xx_hal_adc.c ****                         HAL_ADC_STATE_BUSY_INTERNAL,
 691:Drivers/STM32G0xx_HAL_Driver/Src/stm32g0xx_hal_adc.c ****                         HAL_ADC_STATE_READY);
 692:Drivers/STM32G0xx_HAL_Driver/Src/stm32g0xx_hal_adc.c ****     }
 693:Drivers/STM32G0xx_HAL_Driver/Src/stm32g0xx_hal_adc.c ****     else
 694:Drivers/STM32G0xx_HAL_Driver/Src/stm32g0xx_hal_adc.c ****     {
 695:Drivers/STM32G0xx_HAL_Driver/Src/stm32g0xx_hal_adc.c ****       /* Update ADC state machine to error */
 696:Drivers/STM32G0xx_HAL_Driver/Src/stm32g0xx_hal_adc.c ****       ADC_STATE_CLR_SET(hadc->State,
 697:Drivers/STM32G0xx_HAL_Driver/Src/stm32g0xx_hal_adc.c ****                         HAL_ADC_STATE_BUSY_INTERNAL,
 698:Drivers/STM32G0xx_HAL_Driver/Src/stm32g0xx_hal_adc.c ****                         HAL_ADC_STATE_ERROR_INTERNAL);
 699:Drivers/STM32G0xx_HAL_Driver/Src/stm32g0xx_hal_adc.c **** 
 700:Drivers/STM32G0xx_HAL_Driver/Src/stm32g0xx_hal_adc.c ****       /* Set ADC error code to ADC peripheral internal error */
 701:Drivers/STM32G0xx_HAL_Driver/Src/stm32g0xx_hal_adc.c ****       SET_BIT(hadc->ErrorCode, HAL_ADC_ERROR_INTERNAL);
 702:Drivers/STM32G0xx_HAL_Driver/Src/stm32g0xx_hal_adc.c **** 
 703:Drivers/STM32G0xx_HAL_Driver/Src/stm32g0xx_hal_adc.c ****       tmp_hal_status = HAL_ERROR;
 704:Drivers/STM32G0xx_HAL_Driver/Src/stm32g0xx_hal_adc.c ****     }
 705:Drivers/STM32G0xx_HAL_Driver/Src/stm32g0xx_hal_adc.c **** 
 706:Drivers/STM32G0xx_HAL_Driver/Src/stm32g0xx_hal_adc.c ****   }
 707:Drivers/STM32G0xx_HAL_Driver/Src/stm32g0xx_hal_adc.c ****   else
 708:Drivers/STM32G0xx_HAL_Driver/Src/stm32g0xx_hal_adc.c ****   {
 709:Drivers/STM32G0xx_HAL_Driver/Src/stm32g0xx_hal_adc.c ****     /* Update ADC state machine to error */
 710:Drivers/STM32G0xx_HAL_Driver/Src/stm32g0xx_hal_adc.c ****     SET_BIT(hadc->State, HAL_ADC_STATE_ERROR_INTERNAL);
 711:Drivers/STM32G0xx_HAL_Driver/Src/stm32g0xx_hal_adc.c **** 
 712:Drivers/STM32G0xx_HAL_Driver/Src/stm32g0xx_hal_adc.c ****     tmp_hal_status = HAL_ERROR;
 713:Drivers/STM32G0xx_HAL_Driver/Src/stm32g0xx_hal_adc.c ****   }
 714:Drivers/STM32G0xx_HAL_Driver/Src/stm32g0xx_hal_adc.c **** 
 715:Drivers/STM32G0xx_HAL_Driver/Src/stm32g0xx_hal_adc.c ****   return tmp_hal_status;
ARM GAS  C:\Users\tugru\AppData\Local\Temp\ccFmcKQs.s 			page 14


 716:Drivers/STM32G0xx_HAL_Driver/Src/stm32g0xx_hal_adc.c **** }
 717:Drivers/STM32G0xx_HAL_Driver/Src/stm32g0xx_hal_adc.c **** 
 718:Drivers/STM32G0xx_HAL_Driver/Src/stm32g0xx_hal_adc.c **** /**
 719:Drivers/STM32G0xx_HAL_Driver/Src/stm32g0xx_hal_adc.c ****   * @brief  Deinitialize the ADC peripheral registers to their default reset
 720:Drivers/STM32G0xx_HAL_Driver/Src/stm32g0xx_hal_adc.c ****   *         values, with deinitialization of the ADC MSP.
 721:Drivers/STM32G0xx_HAL_Driver/Src/stm32g0xx_hal_adc.c ****   * @note   For devices with several ADCs: reset of ADC common registers is done
 722:Drivers/STM32G0xx_HAL_Driver/Src/stm32g0xx_hal_adc.c ****   *         only if all ADCs sharing the same common group are disabled.
 723:Drivers/STM32G0xx_HAL_Driver/Src/stm32g0xx_hal_adc.c ****   *         (function "HAL_ADC_MspDeInit()" is also called under the same conditions:
 724:Drivers/STM32G0xx_HAL_Driver/Src/stm32g0xx_hal_adc.c ****   *         all ADC instances use the same core clock at RCC level, disabling
 725:Drivers/STM32G0xx_HAL_Driver/Src/stm32g0xx_hal_adc.c ****   *         the core clock reset all ADC instances).
 726:Drivers/STM32G0xx_HAL_Driver/Src/stm32g0xx_hal_adc.c ****   *         If this is not the case, reset of these common parameters reset is
 727:Drivers/STM32G0xx_HAL_Driver/Src/stm32g0xx_hal_adc.c ****   *         bypassed without error reporting: it can be the intended behavior in
 728:Drivers/STM32G0xx_HAL_Driver/Src/stm32g0xx_hal_adc.c ****   *         case of reset of a single ADC while the other ADCs sharing the same
 729:Drivers/STM32G0xx_HAL_Driver/Src/stm32g0xx_hal_adc.c ****   *         common group is still running.
 730:Drivers/STM32G0xx_HAL_Driver/Src/stm32g0xx_hal_adc.c ****   * @param hadc ADC handle
 731:Drivers/STM32G0xx_HAL_Driver/Src/stm32g0xx_hal_adc.c ****   * @retval HAL status
 732:Drivers/STM32G0xx_HAL_Driver/Src/stm32g0xx_hal_adc.c ****   */
 733:Drivers/STM32G0xx_HAL_Driver/Src/stm32g0xx_hal_adc.c **** HAL_StatusTypeDef HAL_ADC_DeInit(ADC_HandleTypeDef *hadc)
 734:Drivers/STM32G0xx_HAL_Driver/Src/stm32g0xx_hal_adc.c **** {
 735:Drivers/STM32G0xx_HAL_Driver/Src/stm32g0xx_hal_adc.c ****   HAL_StatusTypeDef tmp_hal_status;
 736:Drivers/STM32G0xx_HAL_Driver/Src/stm32g0xx_hal_adc.c **** 
 737:Drivers/STM32G0xx_HAL_Driver/Src/stm32g0xx_hal_adc.c ****   /* Check ADC handle */
 738:Drivers/STM32G0xx_HAL_Driver/Src/stm32g0xx_hal_adc.c ****   if (hadc == NULL)
 739:Drivers/STM32G0xx_HAL_Driver/Src/stm32g0xx_hal_adc.c ****   {
 740:Drivers/STM32G0xx_HAL_Driver/Src/stm32g0xx_hal_adc.c ****     return HAL_ERROR;
 741:Drivers/STM32G0xx_HAL_Driver/Src/stm32g0xx_hal_adc.c ****   }
 742:Drivers/STM32G0xx_HAL_Driver/Src/stm32g0xx_hal_adc.c **** 
 743:Drivers/STM32G0xx_HAL_Driver/Src/stm32g0xx_hal_adc.c ****   /* Check the parameters */
 744:Drivers/STM32G0xx_HAL_Driver/Src/stm32g0xx_hal_adc.c ****   assert_param(IS_ADC_ALL_INSTANCE(hadc->Instance));
 745:Drivers/STM32G0xx_HAL_Driver/Src/stm32g0xx_hal_adc.c **** 
 746:Drivers/STM32G0xx_HAL_Driver/Src/stm32g0xx_hal_adc.c ****   /* Set ADC state */
 747:Drivers/STM32G0xx_HAL_Driver/Src/stm32g0xx_hal_adc.c ****   SET_BIT(hadc->State, HAL_ADC_STATE_BUSY_INTERNAL);
 748:Drivers/STM32G0xx_HAL_Driver/Src/stm32g0xx_hal_adc.c **** 
 749:Drivers/STM32G0xx_HAL_Driver/Src/stm32g0xx_hal_adc.c ****   /* Stop potential conversion on going, on regular group */
 750:Drivers/STM32G0xx_HAL_Driver/Src/stm32g0xx_hal_adc.c ****   tmp_hal_status = ADC_ConversionStop(hadc);
 751:Drivers/STM32G0xx_HAL_Driver/Src/stm32g0xx_hal_adc.c **** 
 752:Drivers/STM32G0xx_HAL_Driver/Src/stm32g0xx_hal_adc.c ****   /* Disable ADC peripheral if conversions are effectively stopped */
 753:Drivers/STM32G0xx_HAL_Driver/Src/stm32g0xx_hal_adc.c ****   if (tmp_hal_status == HAL_OK)
 754:Drivers/STM32G0xx_HAL_Driver/Src/stm32g0xx_hal_adc.c ****   {
 755:Drivers/STM32G0xx_HAL_Driver/Src/stm32g0xx_hal_adc.c ****     /* Disable the ADC peripheral */
 756:Drivers/STM32G0xx_HAL_Driver/Src/stm32g0xx_hal_adc.c ****     tmp_hal_status = ADC_Disable(hadc);
 757:Drivers/STM32G0xx_HAL_Driver/Src/stm32g0xx_hal_adc.c **** 
 758:Drivers/STM32G0xx_HAL_Driver/Src/stm32g0xx_hal_adc.c ****     /* Check if ADC is effectively disabled */
 759:Drivers/STM32G0xx_HAL_Driver/Src/stm32g0xx_hal_adc.c ****     if (tmp_hal_status == HAL_OK)
 760:Drivers/STM32G0xx_HAL_Driver/Src/stm32g0xx_hal_adc.c ****     {
 761:Drivers/STM32G0xx_HAL_Driver/Src/stm32g0xx_hal_adc.c ****       /* Change ADC state */
 762:Drivers/STM32G0xx_HAL_Driver/Src/stm32g0xx_hal_adc.c ****       hadc->State = HAL_ADC_STATE_READY;
 763:Drivers/STM32G0xx_HAL_Driver/Src/stm32g0xx_hal_adc.c ****     }
 764:Drivers/STM32G0xx_HAL_Driver/Src/stm32g0xx_hal_adc.c **** 
 765:Drivers/STM32G0xx_HAL_Driver/Src/stm32g0xx_hal_adc.c ****     /* Disable ADC internal voltage regulator */
 766:Drivers/STM32G0xx_HAL_Driver/Src/stm32g0xx_hal_adc.c ****     LL_ADC_DisableInternalRegulator(hadc->Instance);
 767:Drivers/STM32G0xx_HAL_Driver/Src/stm32g0xx_hal_adc.c ****   }
 768:Drivers/STM32G0xx_HAL_Driver/Src/stm32g0xx_hal_adc.c **** 
 769:Drivers/STM32G0xx_HAL_Driver/Src/stm32g0xx_hal_adc.c ****   /* Note: HAL ADC deInit is done independently of ADC conversion stop        */
 770:Drivers/STM32G0xx_HAL_Driver/Src/stm32g0xx_hal_adc.c ****   /*       and disable return status. In case of status fail, attempt to      */
 771:Drivers/STM32G0xx_HAL_Driver/Src/stm32g0xx_hal_adc.c ****   /*       perform deinitialization anyway and it is up user code in          */
 772:Drivers/STM32G0xx_HAL_Driver/Src/stm32g0xx_hal_adc.c ****   /*       in HAL_ADC_MspDeInit() to reset the ADC peripheral using           */
ARM GAS  C:\Users\tugru\AppData\Local\Temp\ccFmcKQs.s 			page 15


 773:Drivers/STM32G0xx_HAL_Driver/Src/stm32g0xx_hal_adc.c ****   /*       system RCC hard reset.                                             */
 774:Drivers/STM32G0xx_HAL_Driver/Src/stm32g0xx_hal_adc.c **** 
 775:Drivers/STM32G0xx_HAL_Driver/Src/stm32g0xx_hal_adc.c ****   /* ========== Reset ADC registers ========== */
 776:Drivers/STM32G0xx_HAL_Driver/Src/stm32g0xx_hal_adc.c ****   /* Reset register IER */
 777:Drivers/STM32G0xx_HAL_Driver/Src/stm32g0xx_hal_adc.c ****   __HAL_ADC_DISABLE_IT(hadc, (ADC_IT_AWD3  | ADC_IT_AWD2 |
 778:Drivers/STM32G0xx_HAL_Driver/Src/stm32g0xx_hal_adc.c ****                               ADC_IT_AWD1  | ADC_IT_OVR  |
 779:Drivers/STM32G0xx_HAL_Driver/Src/stm32g0xx_hal_adc.c ****                               ADC_IT_EOS   | ADC_IT_EOC  |
 780:Drivers/STM32G0xx_HAL_Driver/Src/stm32g0xx_hal_adc.c ****                               ADC_IT_EOSMP | ADC_IT_RDY));
 781:Drivers/STM32G0xx_HAL_Driver/Src/stm32g0xx_hal_adc.c **** 
 782:Drivers/STM32G0xx_HAL_Driver/Src/stm32g0xx_hal_adc.c ****   /* Reset register ISR */
 783:Drivers/STM32G0xx_HAL_Driver/Src/stm32g0xx_hal_adc.c ****   __HAL_ADC_CLEAR_FLAG(hadc, (ADC_FLAG_AWD3  | ADC_FLAG_AWD2 |
 784:Drivers/STM32G0xx_HAL_Driver/Src/stm32g0xx_hal_adc.c ****                               ADC_FLAG_AWD1  | ADC_FLAG_OVR  |
 785:Drivers/STM32G0xx_HAL_Driver/Src/stm32g0xx_hal_adc.c ****                               ADC_FLAG_EOS   | ADC_FLAG_EOC  |
 786:Drivers/STM32G0xx_HAL_Driver/Src/stm32g0xx_hal_adc.c ****                               ADC_FLAG_EOSMP | ADC_FLAG_RDY));
 787:Drivers/STM32G0xx_HAL_Driver/Src/stm32g0xx_hal_adc.c **** 
 788:Drivers/STM32G0xx_HAL_Driver/Src/stm32g0xx_hal_adc.c ****   /* Reset register CR */
 789:Drivers/STM32G0xx_HAL_Driver/Src/stm32g0xx_hal_adc.c ****   /* Bits ADC_CR_ADCAL, ADC_CR_ADSTP, ADC_CR_ADSTART are in access mode     */
 790:Drivers/STM32G0xx_HAL_Driver/Src/stm32g0xx_hal_adc.c ****   /* "read-set": no direct reset applicable.                                */
 791:Drivers/STM32G0xx_HAL_Driver/Src/stm32g0xx_hal_adc.c **** 
 792:Drivers/STM32G0xx_HAL_Driver/Src/stm32g0xx_hal_adc.c ****   /* Reset register CFGR1 */
 793:Drivers/STM32G0xx_HAL_Driver/Src/stm32g0xx_hal_adc.c ****   hadc->Instance->CFGR1 &= ~(ADC_CFGR1_AWD1CH   | ADC_CFGR1_AWD1EN  | ADC_CFGR1_AWD1SGL | ADC_CFGR1
 794:Drivers/STM32G0xx_HAL_Driver/Src/stm32g0xx_hal_adc.c ****                              ADC_CFGR1_CHSELRMOD | ADC_CFGR1_AUTOFF |
 795:Drivers/STM32G0xx_HAL_Driver/Src/stm32g0xx_hal_adc.c ****                              ADC_CFGR1_WAIT | ADC_CFGR1_CONT | ADC_CFGR1_OVRMOD |
 796:Drivers/STM32G0xx_HAL_Driver/Src/stm32g0xx_hal_adc.c ****                              ADC_CFGR1_EXTEN   | ADC_CFGR1_EXTSEL | ADC_CFGR1_ALIGN  | ADC_CFGR1_RE
 797:Drivers/STM32G0xx_HAL_Driver/Src/stm32g0xx_hal_adc.c ****                              ADC_CFGR1_SCANDIR | ADC_CFGR1_DMACFG | ADC_CFGR1_DMAEN);
 798:Drivers/STM32G0xx_HAL_Driver/Src/stm32g0xx_hal_adc.c **** 
 799:Drivers/STM32G0xx_HAL_Driver/Src/stm32g0xx_hal_adc.c ****   /* Reset register SMPR */
 800:Drivers/STM32G0xx_HAL_Driver/Src/stm32g0xx_hal_adc.c ****   hadc->Instance->SMPR &= ~ADC_SMPR_SMP1;
 801:Drivers/STM32G0xx_HAL_Driver/Src/stm32g0xx_hal_adc.c **** 
 802:Drivers/STM32G0xx_HAL_Driver/Src/stm32g0xx_hal_adc.c ****   /* Reset register CHSELR */
 803:Drivers/STM32G0xx_HAL_Driver/Src/stm32g0xx_hal_adc.c ****   hadc->Instance->CHSELR &= ~(ADC_CHSELR_SQ_ALL);
 804:Drivers/STM32G0xx_HAL_Driver/Src/stm32g0xx_hal_adc.c **** 
 805:Drivers/STM32G0xx_HAL_Driver/Src/stm32g0xx_hal_adc.c ****   /* Reset register DR */
 806:Drivers/STM32G0xx_HAL_Driver/Src/stm32g0xx_hal_adc.c ****   /* bits in access mode read only, no direct reset applicable */
 807:Drivers/STM32G0xx_HAL_Driver/Src/stm32g0xx_hal_adc.c **** 
 808:Drivers/STM32G0xx_HAL_Driver/Src/stm32g0xx_hal_adc.c ****   /* Reset registers AWDxTR */
 809:Drivers/STM32G0xx_HAL_Driver/Src/stm32g0xx_hal_adc.c ****   hadc->Instance->AWD1TR &= ~(ADC_AWD1TR_HT1 | ADC_AWD1TR_LT1);
 810:Drivers/STM32G0xx_HAL_Driver/Src/stm32g0xx_hal_adc.c ****   hadc->Instance->AWD2TR &= ~(ADC_AWD2TR_HT2 | ADC_AWD2TR_LT2);
 811:Drivers/STM32G0xx_HAL_Driver/Src/stm32g0xx_hal_adc.c ****   hadc->Instance->AWD3TR &= ~(ADC_AWD3TR_HT3 | ADC_AWD3TR_LT3);
 812:Drivers/STM32G0xx_HAL_Driver/Src/stm32g0xx_hal_adc.c **** 
 813:Drivers/STM32G0xx_HAL_Driver/Src/stm32g0xx_hal_adc.c ****   /* Reset register CFGR2 */
 814:Drivers/STM32G0xx_HAL_Driver/Src/stm32g0xx_hal_adc.c ****   /* Note: CFGR2 reset done at the end of de-initialization due to          */
 815:Drivers/STM32G0xx_HAL_Driver/Src/stm32g0xx_hal_adc.c ****   /*       clock source reset                                               */
 816:Drivers/STM32G0xx_HAL_Driver/Src/stm32g0xx_hal_adc.c ****   /* Note: Update of ADC clock mode is conditioned to ADC state disabled:   */
 817:Drivers/STM32G0xx_HAL_Driver/Src/stm32g0xx_hal_adc.c ****   /*       already done above.                                              */
 818:Drivers/STM32G0xx_HAL_Driver/Src/stm32g0xx_hal_adc.c ****   hadc->Instance->CFGR2 &= ~ADC_CFGR2_CKMODE;
 819:Drivers/STM32G0xx_HAL_Driver/Src/stm32g0xx_hal_adc.c **** 
 820:Drivers/STM32G0xx_HAL_Driver/Src/stm32g0xx_hal_adc.c ****   /* Reset register CCR */
 821:Drivers/STM32G0xx_HAL_Driver/Src/stm32g0xx_hal_adc.c ****   ADC1_COMMON->CCR &= ~(ADC_CCR_VBATEN | ADC_CCR_TSEN | ADC_CCR_VREFEN | ADC_CCR_PRESC);
 822:Drivers/STM32G0xx_HAL_Driver/Src/stm32g0xx_hal_adc.c **** 
 823:Drivers/STM32G0xx_HAL_Driver/Src/stm32g0xx_hal_adc.c ****   /* ========== Hard reset ADC peripheral ========== */
 824:Drivers/STM32G0xx_HAL_Driver/Src/stm32g0xx_hal_adc.c ****   /* Performs a global reset of the entire ADC peripheral: ADC state is     */
 825:Drivers/STM32G0xx_HAL_Driver/Src/stm32g0xx_hal_adc.c ****   /* forced to a similar state after device power-on.                       */
 826:Drivers/STM32G0xx_HAL_Driver/Src/stm32g0xx_hal_adc.c ****   /* Note: A possible implementation is to add RCC bus reset of ADC         */
 827:Drivers/STM32G0xx_HAL_Driver/Src/stm32g0xx_hal_adc.c ****   /* (for example, using macro                                              */
 828:Drivers/STM32G0xx_HAL_Driver/Src/stm32g0xx_hal_adc.c ****   /*  __HAL_RCC_ADC..._FORCE_RESET()/..._RELEASE_RESET()/..._CLK_DISABLE()) */
 829:Drivers/STM32G0xx_HAL_Driver/Src/stm32g0xx_hal_adc.c ****   /* in function "void HAL_ADC_MspDeInit(ADC_HandleTypeDef *hadc)":         */
ARM GAS  C:\Users\tugru\AppData\Local\Temp\ccFmcKQs.s 			page 16


 830:Drivers/STM32G0xx_HAL_Driver/Src/stm32g0xx_hal_adc.c **** #if (USE_HAL_ADC_REGISTER_CALLBACKS == 1)
 831:Drivers/STM32G0xx_HAL_Driver/Src/stm32g0xx_hal_adc.c ****   if (hadc->MspDeInitCallback == NULL)
 832:Drivers/STM32G0xx_HAL_Driver/Src/stm32g0xx_hal_adc.c ****   {
 833:Drivers/STM32G0xx_HAL_Driver/Src/stm32g0xx_hal_adc.c ****     hadc->MspDeInitCallback = HAL_ADC_MspDeInit; /* Legacy weak MspDeInit  */
 834:Drivers/STM32G0xx_HAL_Driver/Src/stm32g0xx_hal_adc.c ****   }
 835:Drivers/STM32G0xx_HAL_Driver/Src/stm32g0xx_hal_adc.c **** 
 836:Drivers/STM32G0xx_HAL_Driver/Src/stm32g0xx_hal_adc.c ****   /* DeInit the low level hardware */
 837:Drivers/STM32G0xx_HAL_Driver/Src/stm32g0xx_hal_adc.c ****   hadc->MspDeInitCallback(hadc);
 838:Drivers/STM32G0xx_HAL_Driver/Src/stm32g0xx_hal_adc.c **** #else
 839:Drivers/STM32G0xx_HAL_Driver/Src/stm32g0xx_hal_adc.c ****   /* DeInit the low level hardware */
 840:Drivers/STM32G0xx_HAL_Driver/Src/stm32g0xx_hal_adc.c ****   HAL_ADC_MspDeInit(hadc);
 841:Drivers/STM32G0xx_HAL_Driver/Src/stm32g0xx_hal_adc.c **** #endif /* USE_HAL_ADC_REGISTER_CALLBACKS */
 842:Drivers/STM32G0xx_HAL_Driver/Src/stm32g0xx_hal_adc.c **** 
 843:Drivers/STM32G0xx_HAL_Driver/Src/stm32g0xx_hal_adc.c ****   /* Reset HAL ADC handle variable */
 844:Drivers/STM32G0xx_HAL_Driver/Src/stm32g0xx_hal_adc.c ****   hadc->ADCGroupRegularSequencerRanks = 0x00000000UL;
 845:Drivers/STM32G0xx_HAL_Driver/Src/stm32g0xx_hal_adc.c **** 
 846:Drivers/STM32G0xx_HAL_Driver/Src/stm32g0xx_hal_adc.c ****   /* Set ADC error code to none */
 847:Drivers/STM32G0xx_HAL_Driver/Src/stm32g0xx_hal_adc.c ****   ADC_CLEAR_ERRORCODE(hadc);
 848:Drivers/STM32G0xx_HAL_Driver/Src/stm32g0xx_hal_adc.c **** 
 849:Drivers/STM32G0xx_HAL_Driver/Src/stm32g0xx_hal_adc.c ****   /* Set ADC state */
 850:Drivers/STM32G0xx_HAL_Driver/Src/stm32g0xx_hal_adc.c ****   hadc->State = HAL_ADC_STATE_RESET;
 851:Drivers/STM32G0xx_HAL_Driver/Src/stm32g0xx_hal_adc.c **** 
 852:Drivers/STM32G0xx_HAL_Driver/Src/stm32g0xx_hal_adc.c ****   __HAL_UNLOCK(hadc);
 853:Drivers/STM32G0xx_HAL_Driver/Src/stm32g0xx_hal_adc.c **** 
 854:Drivers/STM32G0xx_HAL_Driver/Src/stm32g0xx_hal_adc.c ****   return tmp_hal_status;
 855:Drivers/STM32G0xx_HAL_Driver/Src/stm32g0xx_hal_adc.c **** }
 856:Drivers/STM32G0xx_HAL_Driver/Src/stm32g0xx_hal_adc.c **** 
 857:Drivers/STM32G0xx_HAL_Driver/Src/stm32g0xx_hal_adc.c **** /**
 858:Drivers/STM32G0xx_HAL_Driver/Src/stm32g0xx_hal_adc.c ****   * @brief  Initialize the ADC MSP.
 859:Drivers/STM32G0xx_HAL_Driver/Src/stm32g0xx_hal_adc.c ****   * @param hadc ADC handle
 860:Drivers/STM32G0xx_HAL_Driver/Src/stm32g0xx_hal_adc.c ****   * @retval None
 861:Drivers/STM32G0xx_HAL_Driver/Src/stm32g0xx_hal_adc.c ****   */
 862:Drivers/STM32G0xx_HAL_Driver/Src/stm32g0xx_hal_adc.c **** __weak void HAL_ADC_MspInit(ADC_HandleTypeDef *hadc)
 863:Drivers/STM32G0xx_HAL_Driver/Src/stm32g0xx_hal_adc.c **** {
  28              		.loc 1 863 1 view -0
  29              		.cfi_startproc
  30              		@ args = 0, pretend = 0, frame = 0
  31              		@ frame_needed = 0, uses_anonymous_args = 0
  32              		@ link register save eliminated.
 864:Drivers/STM32G0xx_HAL_Driver/Src/stm32g0xx_hal_adc.c ****   /* Prevent unused argument(s) compilation warning */
 865:Drivers/STM32G0xx_HAL_Driver/Src/stm32g0xx_hal_adc.c ****   UNUSED(hadc);
  33              		.loc 1 865 3 view .LVU1
 866:Drivers/STM32G0xx_HAL_Driver/Src/stm32g0xx_hal_adc.c **** 
 867:Drivers/STM32G0xx_HAL_Driver/Src/stm32g0xx_hal_adc.c ****   /* NOTE : This function should not be modified. When the callback is needed,
 868:Drivers/STM32G0xx_HAL_Driver/Src/stm32g0xx_hal_adc.c ****             function HAL_ADC_MspInit must be implemented in the user file.
 869:Drivers/STM32G0xx_HAL_Driver/Src/stm32g0xx_hal_adc.c ****    */
 870:Drivers/STM32G0xx_HAL_Driver/Src/stm32g0xx_hal_adc.c **** }
  34              		.loc 1 870 1 is_stmt 0 view .LVU2
  35              		@ sp needed
  36 0000 7047     		bx	lr
  37              		.cfi_endproc
  38              	.LFE442:
  40              		.global	__aeabi_uidiv
  41              		.section	.text.HAL_ADC_Init,"ax",%progbits
  42              		.align	1
  43              		.global	HAL_ADC_Init
  44              		.syntax unified
ARM GAS  C:\Users\tugru\AppData\Local\Temp\ccFmcKQs.s 			page 17


  45              		.code	16
  46              		.thumb_func
  48              	HAL_ADC_Init:
  49              	.LVL1:
  50              	.LFB440:
 380:Drivers/STM32G0xx_HAL_Driver/Src/stm32g0xx_hal_adc.c ****   HAL_StatusTypeDef tmp_hal_status = HAL_OK;
  51              		.loc 1 380 1 is_stmt 1 view -0
  52              		.cfi_startproc
  53              		@ args = 0, pretend = 0, frame = 8
  54              		@ frame_needed = 0, uses_anonymous_args = 0
 380:Drivers/STM32G0xx_HAL_Driver/Src/stm32g0xx_hal_adc.c ****   HAL_StatusTypeDef tmp_hal_status = HAL_OK;
  55              		.loc 1 380 1 is_stmt 0 view .LVU4
  56 0000 30B5     		push	{r4, r5, lr}
  57              	.LCFI0:
  58              		.cfi_def_cfa_offset 12
  59              		.cfi_offset 4, -12
  60              		.cfi_offset 5, -8
  61              		.cfi_offset 14, -4
  62 0002 83B0     		sub	sp, sp, #12
  63              	.LCFI1:
  64              		.cfi_def_cfa_offset 24
  65 0004 0400     		movs	r4, r0
 381:Drivers/STM32G0xx_HAL_Driver/Src/stm32g0xx_hal_adc.c ****   uint32_t tmp_cfgr1 = 0UL;
  66              		.loc 1 381 3 is_stmt 1 view .LVU5
  67              	.LVL2:
 382:Drivers/STM32G0xx_HAL_Driver/Src/stm32g0xx_hal_adc.c ****   uint32_t tmp_cfgr2 = 0UL;
  68              		.loc 1 382 3 view .LVU6
 383:Drivers/STM32G0xx_HAL_Driver/Src/stm32g0xx_hal_adc.c ****   uint32_t tmp_adc_reg_is_conversion_on_going;
  69              		.loc 1 383 3 view .LVU7
 384:Drivers/STM32G0xx_HAL_Driver/Src/stm32g0xx_hal_adc.c ****   __IO uint32_t wait_loop_index = 0UL;
  70              		.loc 1 384 3 view .LVU8
 385:Drivers/STM32G0xx_HAL_Driver/Src/stm32g0xx_hal_adc.c **** 
  71              		.loc 1 385 3 view .LVU9
 385:Drivers/STM32G0xx_HAL_Driver/Src/stm32g0xx_hal_adc.c **** 
  72              		.loc 1 385 17 is_stmt 0 view .LVU10
  73 0006 0023     		movs	r3, #0
  74 0008 0193     		str	r3, [sp, #4]
 388:Drivers/STM32G0xx_HAL_Driver/Src/stm32g0xx_hal_adc.c ****   {
  75              		.loc 1 388 3 is_stmt 1 view .LVU11
 388:Drivers/STM32G0xx_HAL_Driver/Src/stm32g0xx_hal_adc.c ****   {
  76              		.loc 1 388 6 is_stmt 0 view .LVU12
  77 000a 0028     		cmp	r0, #0
  78 000c 00D1     		bne	.LCB39
  79 000e 06E1     		b	.L21	@long jump
  80              	.LCB39:
 394:Drivers/STM32G0xx_HAL_Driver/Src/stm32g0xx_hal_adc.c ****   assert_param(IS_ADC_CLOCKPRESCALER(hadc->Init.ClockPrescaler));
  81              		.loc 1 394 3 is_stmt 1 view .LVU13
 395:Drivers/STM32G0xx_HAL_Driver/Src/stm32g0xx_hal_adc.c ****   assert_param(IS_ADC_RESOLUTION(hadc->Init.Resolution));
  82              		.loc 1 395 3 view .LVU14
 396:Drivers/STM32G0xx_HAL_Driver/Src/stm32g0xx_hal_adc.c ****   assert_param(IS_ADC_DATA_ALIGN(hadc->Init.DataAlign));
  83              		.loc 1 396 3 view .LVU15
 397:Drivers/STM32G0xx_HAL_Driver/Src/stm32g0xx_hal_adc.c ****   assert_param(IS_ADC_SCAN_MODE(hadc->Init.ScanConvMode));
  84              		.loc 1 397 3 view .LVU16
 398:Drivers/STM32G0xx_HAL_Driver/Src/stm32g0xx_hal_adc.c ****   assert_param(IS_FUNCTIONAL_STATE(hadc->Init.ContinuousConvMode));
  85              		.loc 1 398 3 view .LVU17
 399:Drivers/STM32G0xx_HAL_Driver/Src/stm32g0xx_hal_adc.c ****   assert_param(IS_ADC_EXTTRIG_EDGE(hadc->Init.ExternalTrigConvEdge));
  86              		.loc 1 399 3 view .LVU18
ARM GAS  C:\Users\tugru\AppData\Local\Temp\ccFmcKQs.s 			page 18


 400:Drivers/STM32G0xx_HAL_Driver/Src/stm32g0xx_hal_adc.c ****   assert_param(IS_ADC_EXTTRIG(hadc->Init.ExternalTrigConv));
  87              		.loc 1 400 3 view .LVU19
 401:Drivers/STM32G0xx_HAL_Driver/Src/stm32g0xx_hal_adc.c ****   assert_param(IS_FUNCTIONAL_STATE(hadc->Init.DMAContinuousRequests));
  88              		.loc 1 401 3 view .LVU20
 402:Drivers/STM32G0xx_HAL_Driver/Src/stm32g0xx_hal_adc.c ****   assert_param(IS_ADC_EOC_SELECTION(hadc->Init.EOCSelection));
  89              		.loc 1 402 3 view .LVU21
 403:Drivers/STM32G0xx_HAL_Driver/Src/stm32g0xx_hal_adc.c ****   assert_param(IS_ADC_OVERRUN(hadc->Init.Overrun));
  90              		.loc 1 403 3 view .LVU22
 404:Drivers/STM32G0xx_HAL_Driver/Src/stm32g0xx_hal_adc.c ****   assert_param(IS_FUNCTIONAL_STATE(hadc->Init.LowPowerAutoWait));
  91              		.loc 1 404 3 view .LVU23
 405:Drivers/STM32G0xx_HAL_Driver/Src/stm32g0xx_hal_adc.c ****   assert_param(IS_FUNCTIONAL_STATE(hadc->Init.LowPowerAutoPowerOff));
  92              		.loc 1 405 3 view .LVU24
 406:Drivers/STM32G0xx_HAL_Driver/Src/stm32g0xx_hal_adc.c ****   assert_param(IS_ADC_SAMPLE_TIME(hadc->Init.SamplingTimeCommon1));
  93              		.loc 1 406 3 view .LVU25
 407:Drivers/STM32G0xx_HAL_Driver/Src/stm32g0xx_hal_adc.c ****   assert_param(IS_ADC_SAMPLE_TIME(hadc->Init.SamplingTimeCommon2));
  94              		.loc 1 407 3 view .LVU26
 408:Drivers/STM32G0xx_HAL_Driver/Src/stm32g0xx_hal_adc.c ****   assert_param(IS_FUNCTIONAL_STATE(hadc->Init.OversamplingMode));
  95              		.loc 1 408 3 view .LVU27
 409:Drivers/STM32G0xx_HAL_Driver/Src/stm32g0xx_hal_adc.c ****   if (hadc->Init.OversamplingMode == ENABLE)
  96              		.loc 1 409 3 view .LVU28
 410:Drivers/STM32G0xx_HAL_Driver/Src/stm32g0xx_hal_adc.c ****   {
  97              		.loc 1 410 3 view .LVU29
 412:Drivers/STM32G0xx_HAL_Driver/Src/stm32g0xx_hal_adc.c ****     assert_param(IS_ADC_RIGHT_BIT_SHIFT(hadc->Init.Oversampling.RightBitShift));
  98              		.loc 1 412 5 view .LVU30
 413:Drivers/STM32G0xx_HAL_Driver/Src/stm32g0xx_hal_adc.c ****     assert_param(IS_ADC_TRIGGERED_OVERSAMPLING_MODE(hadc->Init.Oversampling.TriggeredMode));
  99              		.loc 1 413 5 view .LVU31
 414:Drivers/STM32G0xx_HAL_Driver/Src/stm32g0xx_hal_adc.c ****   }
 100              		.loc 1 414 5 view .LVU32
 416:Drivers/STM32G0xx_HAL_Driver/Src/stm32g0xx_hal_adc.c **** 
 101              		.loc 1 416 3 view .LVU33
 418:Drivers/STM32G0xx_HAL_Driver/Src/stm32g0xx_hal_adc.c ****   {
 102              		.loc 1 418 3 view .LVU34
 424:Drivers/STM32G0xx_HAL_Driver/Src/stm32g0xx_hal_adc.c ****     }
 103              		.loc 1 424 7 view .LVU35
 430:Drivers/STM32G0xx_HAL_Driver/Src/stm32g0xx_hal_adc.c **** 
 104              		.loc 1 430 3 view .LVU36
 434:Drivers/STM32G0xx_HAL_Driver/Src/stm32g0xx_hal_adc.c ****   {
 105              		.loc 1 434 3 view .LVU37
 434:Drivers/STM32G0xx_HAL_Driver/Src/stm32g0xx_hal_adc.c ****   {
 106              		.loc 1 434 11 is_stmt 0 view .LVU38
 107 0010 836D     		ldr	r3, [r0, #88]
 434:Drivers/STM32G0xx_HAL_Driver/Src/stm32g0xx_hal_adc.c ****   {
 108              		.loc 1 434 6 view .LVU39
 109 0012 002B     		cmp	r3, #0
 110 0014 13D0     		beq	.L24
 111              	.LVL3:
 112              	.L4:
 465:Drivers/STM32G0xx_HAL_Driver/Src/stm32g0xx_hal_adc.c ****   {
 113              		.loc 1 465 3 is_stmt 1 view .LVU40
 465:Drivers/STM32G0xx_HAL_Driver/Src/stm32g0xx_hal_adc.c ****   {
 114              		.loc 1 465 45 is_stmt 0 view .LVU41
 115 0016 2368     		ldr	r3, [r4]
 116              	.LVL4:
 117              	.LBB126:
 118              	.LBI126:
 119              		.file 2 "Drivers/STM32G0xx_HAL_Driver/Inc/stm32g0xx_ll_adc.h"
   1:Drivers/STM32G0xx_HAL_Driver/Inc/stm32g0xx_ll_adc.h **** /**
ARM GAS  C:\Users\tugru\AppData\Local\Temp\ccFmcKQs.s 			page 19


   2:Drivers/STM32G0xx_HAL_Driver/Inc/stm32g0xx_ll_adc.h ****   ******************************************************************************
   3:Drivers/STM32G0xx_HAL_Driver/Inc/stm32g0xx_ll_adc.h ****   * @file    stm32g0xx_ll_adc.h
   4:Drivers/STM32G0xx_HAL_Driver/Inc/stm32g0xx_ll_adc.h ****   * @author  MCD Application Team
   5:Drivers/STM32G0xx_HAL_Driver/Inc/stm32g0xx_ll_adc.h ****   * @brief   Header file of ADC LL module.
   6:Drivers/STM32G0xx_HAL_Driver/Inc/stm32g0xx_ll_adc.h ****   ******************************************************************************
   7:Drivers/STM32G0xx_HAL_Driver/Inc/stm32g0xx_ll_adc.h ****   * @attention
   8:Drivers/STM32G0xx_HAL_Driver/Inc/stm32g0xx_ll_adc.h ****   *
   9:Drivers/STM32G0xx_HAL_Driver/Inc/stm32g0xx_ll_adc.h ****   * Copyright (c) 2018 STMicroelectronics.
  10:Drivers/STM32G0xx_HAL_Driver/Inc/stm32g0xx_ll_adc.h ****   * All rights reserved.
  11:Drivers/STM32G0xx_HAL_Driver/Inc/stm32g0xx_ll_adc.h ****   *
  12:Drivers/STM32G0xx_HAL_Driver/Inc/stm32g0xx_ll_adc.h ****   * This software is licensed under terms that can be found in the LICENSE file
  13:Drivers/STM32G0xx_HAL_Driver/Inc/stm32g0xx_ll_adc.h ****   * in the root directory of this software component.
  14:Drivers/STM32G0xx_HAL_Driver/Inc/stm32g0xx_ll_adc.h ****   * If no LICENSE file comes with this software, it is provided AS-IS.
  15:Drivers/STM32G0xx_HAL_Driver/Inc/stm32g0xx_ll_adc.h ****   *
  16:Drivers/STM32G0xx_HAL_Driver/Inc/stm32g0xx_ll_adc.h ****   ******************************************************************************
  17:Drivers/STM32G0xx_HAL_Driver/Inc/stm32g0xx_ll_adc.h ****   */
  18:Drivers/STM32G0xx_HAL_Driver/Inc/stm32g0xx_ll_adc.h **** 
  19:Drivers/STM32G0xx_HAL_Driver/Inc/stm32g0xx_ll_adc.h **** /* Define to prevent recursive inclusion -------------------------------------*/
  20:Drivers/STM32G0xx_HAL_Driver/Inc/stm32g0xx_ll_adc.h **** #ifndef STM32G0xx_LL_ADC_H
  21:Drivers/STM32G0xx_HAL_Driver/Inc/stm32g0xx_ll_adc.h **** #define STM32G0xx_LL_ADC_H
  22:Drivers/STM32G0xx_HAL_Driver/Inc/stm32g0xx_ll_adc.h **** 
  23:Drivers/STM32G0xx_HAL_Driver/Inc/stm32g0xx_ll_adc.h **** #ifdef __cplusplus
  24:Drivers/STM32G0xx_HAL_Driver/Inc/stm32g0xx_ll_adc.h **** extern "C" {
  25:Drivers/STM32G0xx_HAL_Driver/Inc/stm32g0xx_ll_adc.h **** #endif
  26:Drivers/STM32G0xx_HAL_Driver/Inc/stm32g0xx_ll_adc.h **** 
  27:Drivers/STM32G0xx_HAL_Driver/Inc/stm32g0xx_ll_adc.h **** /* Includes ------------------------------------------------------------------*/
  28:Drivers/STM32G0xx_HAL_Driver/Inc/stm32g0xx_ll_adc.h **** #include "stm32g0xx.h"
  29:Drivers/STM32G0xx_HAL_Driver/Inc/stm32g0xx_ll_adc.h **** 
  30:Drivers/STM32G0xx_HAL_Driver/Inc/stm32g0xx_ll_adc.h **** /** @addtogroup STM32G0xx_LL_Driver
  31:Drivers/STM32G0xx_HAL_Driver/Inc/stm32g0xx_ll_adc.h ****   * @{
  32:Drivers/STM32G0xx_HAL_Driver/Inc/stm32g0xx_ll_adc.h ****   */
  33:Drivers/STM32G0xx_HAL_Driver/Inc/stm32g0xx_ll_adc.h **** 
  34:Drivers/STM32G0xx_HAL_Driver/Inc/stm32g0xx_ll_adc.h **** #if defined (ADC1)
  35:Drivers/STM32G0xx_HAL_Driver/Inc/stm32g0xx_ll_adc.h **** 
  36:Drivers/STM32G0xx_HAL_Driver/Inc/stm32g0xx_ll_adc.h **** /** @defgroup ADC_LL ADC
  37:Drivers/STM32G0xx_HAL_Driver/Inc/stm32g0xx_ll_adc.h ****   * @{
  38:Drivers/STM32G0xx_HAL_Driver/Inc/stm32g0xx_ll_adc.h ****   */
  39:Drivers/STM32G0xx_HAL_Driver/Inc/stm32g0xx_ll_adc.h **** 
  40:Drivers/STM32G0xx_HAL_Driver/Inc/stm32g0xx_ll_adc.h **** /* Private types -------------------------------------------------------------*/
  41:Drivers/STM32G0xx_HAL_Driver/Inc/stm32g0xx_ll_adc.h **** /* Private variables ---------------------------------------------------------*/
  42:Drivers/STM32G0xx_HAL_Driver/Inc/stm32g0xx_ll_adc.h **** 
  43:Drivers/STM32G0xx_HAL_Driver/Inc/stm32g0xx_ll_adc.h **** /* Private constants ---------------------------------------------------------*/
  44:Drivers/STM32G0xx_HAL_Driver/Inc/stm32g0xx_ll_adc.h **** /** @defgroup ADC_LL_Private_Constants ADC Private Constants
  45:Drivers/STM32G0xx_HAL_Driver/Inc/stm32g0xx_ll_adc.h ****   * @{
  46:Drivers/STM32G0xx_HAL_Driver/Inc/stm32g0xx_ll_adc.h ****   */
  47:Drivers/STM32G0xx_HAL_Driver/Inc/stm32g0xx_ll_adc.h **** 
  48:Drivers/STM32G0xx_HAL_Driver/Inc/stm32g0xx_ll_adc.h **** /* Internal mask for ADC group regular sequencer:                             */
  49:Drivers/STM32G0xx_HAL_Driver/Inc/stm32g0xx_ll_adc.h **** /* To select into literal LL_ADC_REG_RANK_x the relevant bits for:            */
  50:Drivers/STM32G0xx_HAL_Driver/Inc/stm32g0xx_ll_adc.h **** /* - sequencer rank bits position into the selected register                  */
  51:Drivers/STM32G0xx_HAL_Driver/Inc/stm32g0xx_ll_adc.h **** 
  52:Drivers/STM32G0xx_HAL_Driver/Inc/stm32g0xx_ll_adc.h **** #define ADC_REG_RANK_ID_SQRX_MASK          (ADC_CHANNEL_ID_NUMBER_MASK_POSBIT0)
  53:Drivers/STM32G0xx_HAL_Driver/Inc/stm32g0xx_ll_adc.h **** 
  54:Drivers/STM32G0xx_HAL_Driver/Inc/stm32g0xx_ll_adc.h **** /* Definition of ADC group regular sequencer bits information to be inserted  */
  55:Drivers/STM32G0xx_HAL_Driver/Inc/stm32g0xx_ll_adc.h **** /* into ADC group regular sequencer ranks literals definition.                */
  56:Drivers/STM32G0xx_HAL_Driver/Inc/stm32g0xx_ll_adc.h **** #define ADC_REG_RANK_1_SQRX_BITOFFSET_POS  ( 0UL) /* Equivalent to bitfield "ADC_CHSELR_SQ1" positi
  57:Drivers/STM32G0xx_HAL_Driver/Inc/stm32g0xx_ll_adc.h **** #define ADC_REG_RANK_2_SQRX_BITOFFSET_POS  ( 4UL) /* Equivalent to bitfield "ADC_CHSELR_SQ2" positi
  58:Drivers/STM32G0xx_HAL_Driver/Inc/stm32g0xx_ll_adc.h **** #define ADC_REG_RANK_3_SQRX_BITOFFSET_POS  ( 8UL) /* Equivalent to bitfield "ADC_CHSELR_SQ3" positi
ARM GAS  C:\Users\tugru\AppData\Local\Temp\ccFmcKQs.s 			page 20


  59:Drivers/STM32G0xx_HAL_Driver/Inc/stm32g0xx_ll_adc.h **** #define ADC_REG_RANK_4_SQRX_BITOFFSET_POS  (12UL) /* Equivalent to bitfield "ADC_CHSELR_SQ4" positi
  60:Drivers/STM32G0xx_HAL_Driver/Inc/stm32g0xx_ll_adc.h **** #define ADC_REG_RANK_5_SQRX_BITOFFSET_POS  (16UL) /* Equivalent to bitfield "ADC_CHSELR_SQ5" positi
  61:Drivers/STM32G0xx_HAL_Driver/Inc/stm32g0xx_ll_adc.h **** #define ADC_REG_RANK_6_SQRX_BITOFFSET_POS  (20UL) /* Equivalent to bitfield "ADC_CHSELR_SQ6" positi
  62:Drivers/STM32G0xx_HAL_Driver/Inc/stm32g0xx_ll_adc.h **** #define ADC_REG_RANK_7_SQRX_BITOFFSET_POS  (24UL) /* Equivalent to bitfield "ADC_CHSELR_SQ7" positi
  63:Drivers/STM32G0xx_HAL_Driver/Inc/stm32g0xx_ll_adc.h **** #define ADC_REG_RANK_8_SQRX_BITOFFSET_POS  (28UL) /* Equivalent to bitfield "ADC_CHSELR_SQ8" positi
  64:Drivers/STM32G0xx_HAL_Driver/Inc/stm32g0xx_ll_adc.h **** 
  65:Drivers/STM32G0xx_HAL_Driver/Inc/stm32g0xx_ll_adc.h **** 
  66:Drivers/STM32G0xx_HAL_Driver/Inc/stm32g0xx_ll_adc.h **** 
  67:Drivers/STM32G0xx_HAL_Driver/Inc/stm32g0xx_ll_adc.h **** /* Internal mask for ADC group regular trigger:                               */
  68:Drivers/STM32G0xx_HAL_Driver/Inc/stm32g0xx_ll_adc.h **** /* To select into literal LL_ADC_REG_TRIG_x the relevant bits for:            */
  69:Drivers/STM32G0xx_HAL_Driver/Inc/stm32g0xx_ll_adc.h **** /* - regular trigger source                                                   */
  70:Drivers/STM32G0xx_HAL_Driver/Inc/stm32g0xx_ll_adc.h **** /* - regular trigger edge                                                     */
  71:Drivers/STM32G0xx_HAL_Driver/Inc/stm32g0xx_ll_adc.h **** #define ADC_REG_TRIG_EXT_EDGE_DEFAULT      (ADC_CFGR1_EXTEN_0) /* Trigger edge set to rising edge (
  72:Drivers/STM32G0xx_HAL_Driver/Inc/stm32g0xx_ll_adc.h ****                                                                   compatibility with some ADC on ot
  73:Drivers/STM32G0xx_HAL_Driver/Inc/stm32g0xx_ll_adc.h ****                                                                   having this setting set by HW def
  74:Drivers/STM32G0xx_HAL_Driver/Inc/stm32g0xx_ll_adc.h **** 
  75:Drivers/STM32G0xx_HAL_Driver/Inc/stm32g0xx_ll_adc.h **** /* Mask containing trigger source masks for each of possible                  */
  76:Drivers/STM32G0xx_HAL_Driver/Inc/stm32g0xx_ll_adc.h **** /* trigger edge selection duplicated with shifts [0; 4; 8; 12]                */
  77:Drivers/STM32G0xx_HAL_Driver/Inc/stm32g0xx_ll_adc.h **** /* corresponding to {SW start; ext trigger; ext trigger; ext trigger}.        */
  78:Drivers/STM32G0xx_HAL_Driver/Inc/stm32g0xx_ll_adc.h **** #define ADC_REG_TRIG_SOURCE_MASK           (((LL_ADC_REG_TRIG_SOFTWARE & ADC_CFGR1_EXTSEL) << (4U *
  79:Drivers/STM32G0xx_HAL_Driver/Inc/stm32g0xx_ll_adc.h ****                                             ((ADC_CFGR1_EXTSEL)                            << (4U *
  80:Drivers/STM32G0xx_HAL_Driver/Inc/stm32g0xx_ll_adc.h ****                                             ((ADC_CFGR1_EXTSEL)                            << (4U *
  81:Drivers/STM32G0xx_HAL_Driver/Inc/stm32g0xx_ll_adc.h ****                                             ((ADC_CFGR1_EXTSEL)                            << (4U *
  82:Drivers/STM32G0xx_HAL_Driver/Inc/stm32g0xx_ll_adc.h **** 
  83:Drivers/STM32G0xx_HAL_Driver/Inc/stm32g0xx_ll_adc.h **** /* Mask containing trigger edge masks for each of possible                    */
  84:Drivers/STM32G0xx_HAL_Driver/Inc/stm32g0xx_ll_adc.h **** /* trigger edge selection duplicated with shifts [0; 4; 8; 12]                */
  85:Drivers/STM32G0xx_HAL_Driver/Inc/stm32g0xx_ll_adc.h **** /* corresponding to {SW start; ext trigger; ext trigger; ext trigger}.        */
  86:Drivers/STM32G0xx_HAL_Driver/Inc/stm32g0xx_ll_adc.h **** #define ADC_REG_TRIG_EDGE_MASK             (((LL_ADC_REG_TRIG_SOFTWARE & ADC_CFGR1_EXTEN) << (4U * 
  87:Drivers/STM32G0xx_HAL_Driver/Inc/stm32g0xx_ll_adc.h ****                                             ((ADC_REG_TRIG_EXT_EDGE_DEFAULT)              << (4U * 
  88:Drivers/STM32G0xx_HAL_Driver/Inc/stm32g0xx_ll_adc.h ****                                             ((ADC_REG_TRIG_EXT_EDGE_DEFAULT)              << (4U * 
  89:Drivers/STM32G0xx_HAL_Driver/Inc/stm32g0xx_ll_adc.h ****                                             ((ADC_REG_TRIG_EXT_EDGE_DEFAULT)              << (4U * 
  90:Drivers/STM32G0xx_HAL_Driver/Inc/stm32g0xx_ll_adc.h **** 
  91:Drivers/STM32G0xx_HAL_Driver/Inc/stm32g0xx_ll_adc.h **** /* Definition of ADC group regular trigger bits information.                  */
  92:Drivers/STM32G0xx_HAL_Driver/Inc/stm32g0xx_ll_adc.h **** #define ADC_REG_TRIG_EXTSEL_BITOFFSET_POS  ( 6UL) /* Equivalent to bitfield "ADC_CFGR1_EXTSEL" posi
  93:Drivers/STM32G0xx_HAL_Driver/Inc/stm32g0xx_ll_adc.h **** #define ADC_REG_TRIG_EXTEN_BITOFFSET_POS   (10UL) /* Equivalent to bitfield "ADC_CFGR1_EXTEN" posit
  94:Drivers/STM32G0xx_HAL_Driver/Inc/stm32g0xx_ll_adc.h **** 
  95:Drivers/STM32G0xx_HAL_Driver/Inc/stm32g0xx_ll_adc.h **** 
  96:Drivers/STM32G0xx_HAL_Driver/Inc/stm32g0xx_ll_adc.h **** 
  97:Drivers/STM32G0xx_HAL_Driver/Inc/stm32g0xx_ll_adc.h **** /* Internal mask for ADC channel:                                             */
  98:Drivers/STM32G0xx_HAL_Driver/Inc/stm32g0xx_ll_adc.h **** /* To select into literal LL_ADC_CHANNEL_x the relevant bits for:             */
  99:Drivers/STM32G0xx_HAL_Driver/Inc/stm32g0xx_ll_adc.h **** /* - channel identifier defined by number                                     */
 100:Drivers/STM32G0xx_HAL_Driver/Inc/stm32g0xx_ll_adc.h **** /* - channel identifier defined by bitfield                                   */
 101:Drivers/STM32G0xx_HAL_Driver/Inc/stm32g0xx_ll_adc.h **** /* - channel differentiation between external channels (connected to          */
 102:Drivers/STM32G0xx_HAL_Driver/Inc/stm32g0xx_ll_adc.h **** /*   GPIO pins) and internal channels (connected to internal paths)           */
 103:Drivers/STM32G0xx_HAL_Driver/Inc/stm32g0xx_ll_adc.h **** #define ADC_CHANNEL_ID_NUMBER_MASK         (ADC_CFGR1_AWD1CH)
 104:Drivers/STM32G0xx_HAL_Driver/Inc/stm32g0xx_ll_adc.h **** #define ADC_CHANNEL_ID_BITFIELD_MASK       (ADC_CHSELR_CHSEL)
 105:Drivers/STM32G0xx_HAL_Driver/Inc/stm32g0xx_ll_adc.h **** #define ADC_CHANNEL_ID_NUMBER_MASK_SEQ     (ADC_CHSELR_SQ1 << ADC_CHANNEL_ID_NUMBER_BITOFFSET_POS) 
 106:Drivers/STM32G0xx_HAL_Driver/Inc/stm32g0xx_ll_adc.h ****   ADC_CHANNEL_ID_NUMBER_MASK with reduced range: on this STM32 series, ADC group regular sequencer,
 107:Drivers/STM32G0xx_HAL_Driver/Inc/stm32g0xx_ll_adc.h ****   if set to mode "fully configurable", can contain channels with a restricted channel number.
 108:Drivers/STM32G0xx_HAL_Driver/Inc/stm32g0xx_ll_adc.h ****   Refer to function @ref LL_ADC_REG_SetSequencerConfigurable(). */
 109:Drivers/STM32G0xx_HAL_Driver/Inc/stm32g0xx_ll_adc.h **** #define ADC_CHANNEL_ID_NUMBER_BITOFFSET_POS (26UL)              /* Equivalent to bitfield "ADC_CHAN
 110:Drivers/STM32G0xx_HAL_Driver/Inc/stm32g0xx_ll_adc.h ****                                                                    position in register */
 111:Drivers/STM32G0xx_HAL_Driver/Inc/stm32g0xx_ll_adc.h **** #define ADC_CHANNEL_ID_MASK                (ADC_CHANNEL_ID_NUMBER_MASK | ADC_CHANNEL_ID_BITFIELD_MA
 112:Drivers/STM32G0xx_HAL_Driver/Inc/stm32g0xx_ll_adc.h ****                                             ADC_CHANNEL_ID_INTERNAL_CH_MASK)
 113:Drivers/STM32G0xx_HAL_Driver/Inc/stm32g0xx_ll_adc.h **** /* Equivalent mask of ADC_CHANNEL_NUMBER_MASK aligned on register LSB (bit 0) */
 114:Drivers/STM32G0xx_HAL_Driver/Inc/stm32g0xx_ll_adc.h **** #define ADC_CHANNEL_ID_NUMBER_MASK_POSBIT0 (0x0000001FUL) /* Equivalent to shift: (ADC_CHANNEL_NUMB
 115:Drivers/STM32G0xx_HAL_Driver/Inc/stm32g0xx_ll_adc.h ****   >> [Position of bitfield "ADC_CHANNEL_NUMBER_MASK" in register]) */
ARM GAS  C:\Users\tugru\AppData\Local\Temp\ccFmcKQs.s 			page 21


 116:Drivers/STM32G0xx_HAL_Driver/Inc/stm32g0xx_ll_adc.h **** 
 117:Drivers/STM32G0xx_HAL_Driver/Inc/stm32g0xx_ll_adc.h **** /* Channel differentiation between external and internal channels */
 118:Drivers/STM32G0xx_HAL_Driver/Inc/stm32g0xx_ll_adc.h **** #define ADC_CHANNEL_ID_INTERNAL_CH         (0x80000000UL) /* Marker of internal channel */
 119:Drivers/STM32G0xx_HAL_Driver/Inc/stm32g0xx_ll_adc.h **** #define ADC_CHANNEL_ID_INTERNAL_CH_MASK    (ADC_CHANNEL_ID_INTERNAL_CH)
 120:Drivers/STM32G0xx_HAL_Driver/Inc/stm32g0xx_ll_adc.h **** 
 121:Drivers/STM32G0xx_HAL_Driver/Inc/stm32g0xx_ll_adc.h **** /* Definition of channels ID number information to be inserted into           */
 122:Drivers/STM32G0xx_HAL_Driver/Inc/stm32g0xx_ll_adc.h **** /* channels literals definition.                                              */
 123:Drivers/STM32G0xx_HAL_Driver/Inc/stm32g0xx_ll_adc.h **** #define ADC_CHANNEL_0_NUMBER               (0x00000000UL)
 124:Drivers/STM32G0xx_HAL_Driver/Inc/stm32g0xx_ll_adc.h **** #define ADC_CHANNEL_1_NUMBER               (ADC_CFGR1_AWD1CH_0)
 125:Drivers/STM32G0xx_HAL_Driver/Inc/stm32g0xx_ll_adc.h **** #define ADC_CHANNEL_2_NUMBER               (ADC_CFGR1_AWD1CH_1)
 126:Drivers/STM32G0xx_HAL_Driver/Inc/stm32g0xx_ll_adc.h **** #define ADC_CHANNEL_3_NUMBER               (ADC_CFGR1_AWD1CH_1 | ADC_CFGR1_AWD1CH_0)
 127:Drivers/STM32G0xx_HAL_Driver/Inc/stm32g0xx_ll_adc.h **** #define ADC_CHANNEL_4_NUMBER               (ADC_CFGR1_AWD1CH_2)
 128:Drivers/STM32G0xx_HAL_Driver/Inc/stm32g0xx_ll_adc.h **** #define ADC_CHANNEL_5_NUMBER               (ADC_CFGR1_AWD1CH_2 | ADC_CFGR1_AWD1CH_0)
 129:Drivers/STM32G0xx_HAL_Driver/Inc/stm32g0xx_ll_adc.h **** #define ADC_CHANNEL_6_NUMBER               (ADC_CFGR1_AWD1CH_2 | ADC_CFGR1_AWD1CH_1)
 130:Drivers/STM32G0xx_HAL_Driver/Inc/stm32g0xx_ll_adc.h **** #define ADC_CHANNEL_7_NUMBER               (ADC_CFGR1_AWD1CH_2 | ADC_CFGR1_AWD1CH_1 | ADC_CFGR1_AWD
 131:Drivers/STM32G0xx_HAL_Driver/Inc/stm32g0xx_ll_adc.h **** #define ADC_CHANNEL_8_NUMBER               (ADC_CFGR1_AWD1CH_3)
 132:Drivers/STM32G0xx_HAL_Driver/Inc/stm32g0xx_ll_adc.h **** #define ADC_CHANNEL_9_NUMBER               (ADC_CFGR1_AWD1CH_3 | ADC_CFGR1_AWD1CH_0)
 133:Drivers/STM32G0xx_HAL_Driver/Inc/stm32g0xx_ll_adc.h **** #define ADC_CHANNEL_10_NUMBER              (ADC_CFGR1_AWD1CH_3 | ADC_CFGR1_AWD1CH_1)
 134:Drivers/STM32G0xx_HAL_Driver/Inc/stm32g0xx_ll_adc.h **** #define ADC_CHANNEL_11_NUMBER              (ADC_CFGR1_AWD1CH_3 | ADC_CFGR1_AWD1CH_1 | ADC_CFGR1_AWD
 135:Drivers/STM32G0xx_HAL_Driver/Inc/stm32g0xx_ll_adc.h **** #define ADC_CHANNEL_12_NUMBER              (ADC_CFGR1_AWD1CH_3 | ADC_CFGR1_AWD1CH_2)
 136:Drivers/STM32G0xx_HAL_Driver/Inc/stm32g0xx_ll_adc.h **** #define ADC_CHANNEL_13_NUMBER              (ADC_CFGR1_AWD1CH_3 | ADC_CFGR1_AWD1CH_2 | ADC_CFGR1_AWD
 137:Drivers/STM32G0xx_HAL_Driver/Inc/stm32g0xx_ll_adc.h **** #define ADC_CHANNEL_14_NUMBER              (ADC_CFGR1_AWD1CH_3 | ADC_CFGR1_AWD1CH_2 | ADC_CFGR1_AWD
 138:Drivers/STM32G0xx_HAL_Driver/Inc/stm32g0xx_ll_adc.h **** #define ADC_CHANNEL_15_NUMBER              (ADC_CFGR1_AWD1CH_3 | ADC_CFGR1_AWD1CH_2 | \
 139:Drivers/STM32G0xx_HAL_Driver/Inc/stm32g0xx_ll_adc.h ****                                             ADC_CFGR1_AWD1CH_1 | ADC_CFGR1_AWD1CH_0)
 140:Drivers/STM32G0xx_HAL_Driver/Inc/stm32g0xx_ll_adc.h **** #define ADC_CHANNEL_16_NUMBER              (ADC_CFGR1_AWD1CH_4)
 141:Drivers/STM32G0xx_HAL_Driver/Inc/stm32g0xx_ll_adc.h **** #define ADC_CHANNEL_17_NUMBER              (ADC_CFGR1_AWD1CH_4 | ADC_CFGR1_AWD1CH_0)
 142:Drivers/STM32G0xx_HAL_Driver/Inc/stm32g0xx_ll_adc.h **** #define ADC_CHANNEL_18_NUMBER              (ADC_CFGR1_AWD1CH_4 | ADC_CFGR1_AWD1CH_1)
 143:Drivers/STM32G0xx_HAL_Driver/Inc/stm32g0xx_ll_adc.h **** 
 144:Drivers/STM32G0xx_HAL_Driver/Inc/stm32g0xx_ll_adc.h **** /* Definition of channels ID bitfield information to be inserted into         */
 145:Drivers/STM32G0xx_HAL_Driver/Inc/stm32g0xx_ll_adc.h **** /* channels literals definition.                                              */
 146:Drivers/STM32G0xx_HAL_Driver/Inc/stm32g0xx_ll_adc.h **** #define ADC_CHANNEL_0_BITFIELD             (ADC_CHSELR_CHSEL0)
 147:Drivers/STM32G0xx_HAL_Driver/Inc/stm32g0xx_ll_adc.h **** #define ADC_CHANNEL_1_BITFIELD             (ADC_CHSELR_CHSEL1)
 148:Drivers/STM32G0xx_HAL_Driver/Inc/stm32g0xx_ll_adc.h **** #define ADC_CHANNEL_2_BITFIELD             (ADC_CHSELR_CHSEL2)
 149:Drivers/STM32G0xx_HAL_Driver/Inc/stm32g0xx_ll_adc.h **** #define ADC_CHANNEL_3_BITFIELD             (ADC_CHSELR_CHSEL3)
 150:Drivers/STM32G0xx_HAL_Driver/Inc/stm32g0xx_ll_adc.h **** #define ADC_CHANNEL_4_BITFIELD             (ADC_CHSELR_CHSEL4)
 151:Drivers/STM32G0xx_HAL_Driver/Inc/stm32g0xx_ll_adc.h **** #define ADC_CHANNEL_5_BITFIELD             (ADC_CHSELR_CHSEL5)
 152:Drivers/STM32G0xx_HAL_Driver/Inc/stm32g0xx_ll_adc.h **** #define ADC_CHANNEL_6_BITFIELD             (ADC_CHSELR_CHSEL6)
 153:Drivers/STM32G0xx_HAL_Driver/Inc/stm32g0xx_ll_adc.h **** #define ADC_CHANNEL_7_BITFIELD             (ADC_CHSELR_CHSEL7)
 154:Drivers/STM32G0xx_HAL_Driver/Inc/stm32g0xx_ll_adc.h **** #define ADC_CHANNEL_8_BITFIELD             (ADC_CHSELR_CHSEL8)
 155:Drivers/STM32G0xx_HAL_Driver/Inc/stm32g0xx_ll_adc.h **** #define ADC_CHANNEL_9_BITFIELD             (ADC_CHSELR_CHSEL9)
 156:Drivers/STM32G0xx_HAL_Driver/Inc/stm32g0xx_ll_adc.h **** #define ADC_CHANNEL_10_BITFIELD            (ADC_CHSELR_CHSEL10)
 157:Drivers/STM32G0xx_HAL_Driver/Inc/stm32g0xx_ll_adc.h **** #define ADC_CHANNEL_11_BITFIELD            (ADC_CHSELR_CHSEL11)
 158:Drivers/STM32G0xx_HAL_Driver/Inc/stm32g0xx_ll_adc.h **** #define ADC_CHANNEL_12_BITFIELD            (ADC_CHSELR_CHSEL12)
 159:Drivers/STM32G0xx_HAL_Driver/Inc/stm32g0xx_ll_adc.h **** #define ADC_CHANNEL_13_BITFIELD            (ADC_CHSELR_CHSEL13)
 160:Drivers/STM32G0xx_HAL_Driver/Inc/stm32g0xx_ll_adc.h **** #define ADC_CHANNEL_14_BITFIELD            (ADC_CHSELR_CHSEL14)
 161:Drivers/STM32G0xx_HAL_Driver/Inc/stm32g0xx_ll_adc.h **** #define ADC_CHANNEL_15_BITFIELD            (ADC_CHSELR_CHSEL15)
 162:Drivers/STM32G0xx_HAL_Driver/Inc/stm32g0xx_ll_adc.h **** #define ADC_CHANNEL_16_BITFIELD            (ADC_CHSELR_CHSEL16)
 163:Drivers/STM32G0xx_HAL_Driver/Inc/stm32g0xx_ll_adc.h **** #define ADC_CHANNEL_17_BITFIELD            (ADC_CHSELR_CHSEL17)
 164:Drivers/STM32G0xx_HAL_Driver/Inc/stm32g0xx_ll_adc.h **** #define ADC_CHANNEL_18_BITFIELD            (ADC_CHSELR_CHSEL18)
 165:Drivers/STM32G0xx_HAL_Driver/Inc/stm32g0xx_ll_adc.h **** 
 166:Drivers/STM32G0xx_HAL_Driver/Inc/stm32g0xx_ll_adc.h **** /* Internal mask for ADC channel sampling time:                               */
 167:Drivers/STM32G0xx_HAL_Driver/Inc/stm32g0xx_ll_adc.h **** /* To select into literals LL_ADC_SAMPLINGTIME_x                              */
 168:Drivers/STM32G0xx_HAL_Driver/Inc/stm32g0xx_ll_adc.h **** /* the relevant bits for:                                                     */
 169:Drivers/STM32G0xx_HAL_Driver/Inc/stm32g0xx_ll_adc.h **** /* (concatenation of multiple bits used in register SMPR)                     */
 170:Drivers/STM32G0xx_HAL_Driver/Inc/stm32g0xx_ll_adc.h **** /* - ADC channels sampling time: setting channel wise, to map each channel    */
 171:Drivers/STM32G0xx_HAL_Driver/Inc/stm32g0xx_ll_adc.h **** /*   on one of the common sampling time available.                            */
 172:Drivers/STM32G0xx_HAL_Driver/Inc/stm32g0xx_ll_adc.h **** /* - ADC channels common sampling time: set a sampling time into one of the   */
ARM GAS  C:\Users\tugru\AppData\Local\Temp\ccFmcKQs.s 			page 22


 173:Drivers/STM32G0xx_HAL_Driver/Inc/stm32g0xx_ll_adc.h **** /*   common sampling time available.                                          */
 174:Drivers/STM32G0xx_HAL_Driver/Inc/stm32g0xx_ll_adc.h **** #define ADC_SAMPLING_TIME_CH_MASK          (ADC_CHANNEL_ID_BITFIELD_MASK << ADC_SMPR_SMPSEL0_BITOFF
 175:Drivers/STM32G0xx_HAL_Driver/Inc/stm32g0xx_ll_adc.h **** #define ADC_SAMPLING_TIME_SMP_MASK         (ADC_SMPR_SMP2 | ADC_SMPR_SMP1)
 176:Drivers/STM32G0xx_HAL_Driver/Inc/stm32g0xx_ll_adc.h **** #define ADC_SAMPLING_TIME_SMP_SHIFT_MASK   (ADC_SMPR_SMP2_BITOFFSET_POS | ADC_SMPR_SMP1_BITOFFSET_P
 177:Drivers/STM32G0xx_HAL_Driver/Inc/stm32g0xx_ll_adc.h **** 
 178:Drivers/STM32G0xx_HAL_Driver/Inc/stm32g0xx_ll_adc.h **** /* Internal mask for ADC analog watchdog:                                     */
 179:Drivers/STM32G0xx_HAL_Driver/Inc/stm32g0xx_ll_adc.h **** /* To select into literals LL_ADC_AWD_CHANNELx_xxx the relevant bits for:     */
 180:Drivers/STM32G0xx_HAL_Driver/Inc/stm32g0xx_ll_adc.h **** /* (concatenation of multiple bits used in different analog watchdogs,        */
 181:Drivers/STM32G0xx_HAL_Driver/Inc/stm32g0xx_ll_adc.h **** /* (feature of several watchdogs not available on all STM32 series)).         */
 182:Drivers/STM32G0xx_HAL_Driver/Inc/stm32g0xx_ll_adc.h **** /* - analog watchdog 1: monitored channel defined by number,                  */
 183:Drivers/STM32G0xx_HAL_Driver/Inc/stm32g0xx_ll_adc.h **** /*   selection of ADC group (ADC group regular).                              */
 184:Drivers/STM32G0xx_HAL_Driver/Inc/stm32g0xx_ll_adc.h **** /* - analog watchdog 2 and 3: monitored channel defined by bitfield, no       */
 185:Drivers/STM32G0xx_HAL_Driver/Inc/stm32g0xx_ll_adc.h **** /*   selection on groups.                                                     */
 186:Drivers/STM32G0xx_HAL_Driver/Inc/stm32g0xx_ll_adc.h **** 
 187:Drivers/STM32G0xx_HAL_Driver/Inc/stm32g0xx_ll_adc.h **** /* Internal register offset for ADC analog watchdog channel configuration */
 188:Drivers/STM32G0xx_HAL_Driver/Inc/stm32g0xx_ll_adc.h **** #define ADC_AWD_CR1_REGOFFSET              (0x00000000UL)
 189:Drivers/STM32G0xx_HAL_Driver/Inc/stm32g0xx_ll_adc.h **** #define ADC_AWD_CR2_REGOFFSET              (0x00100000UL)
 190:Drivers/STM32G0xx_HAL_Driver/Inc/stm32g0xx_ll_adc.h **** #define ADC_AWD_CR3_REGOFFSET              (0x00200000UL)
 191:Drivers/STM32G0xx_HAL_Driver/Inc/stm32g0xx_ll_adc.h **** 
 192:Drivers/STM32G0xx_HAL_Driver/Inc/stm32g0xx_ll_adc.h **** /* Register offset gap between AWD1 and AWD2-AWD3 configuration registers */
 193:Drivers/STM32G0xx_HAL_Driver/Inc/stm32g0xx_ll_adc.h **** /* (Set separately as ADC_AWD_CRX_REGOFFSET to spare 32 bits space */
 194:Drivers/STM32G0xx_HAL_Driver/Inc/stm32g0xx_ll_adc.h **** #define ADC_AWD_CR12_REGOFFSETGAP_MASK     (ADC_AWD2CR_AWD2CH_0)
 195:Drivers/STM32G0xx_HAL_Driver/Inc/stm32g0xx_ll_adc.h **** #define ADC_AWD_CR12_REGOFFSETGAP_VAL      (0x00000024UL)
 196:Drivers/STM32G0xx_HAL_Driver/Inc/stm32g0xx_ll_adc.h **** 
 197:Drivers/STM32G0xx_HAL_Driver/Inc/stm32g0xx_ll_adc.h **** #define ADC_AWD_CRX_REGOFFSET_MASK         (ADC_AWD_CR1_REGOFFSET | ADC_AWD_CR2_REGOFFSET | ADC_AWD
 198:Drivers/STM32G0xx_HAL_Driver/Inc/stm32g0xx_ll_adc.h **** #define ADC_AWD_CRX_REGOFFSET_BITOFFSET_POS (20UL)
 199:Drivers/STM32G0xx_HAL_Driver/Inc/stm32g0xx_ll_adc.h **** 
 200:Drivers/STM32G0xx_HAL_Driver/Inc/stm32g0xx_ll_adc.h **** #define ADC_AWD_CR1_CHANNEL_MASK           (ADC_CFGR1_AWD1CH | ADC_CFGR1_AWD1EN | ADC_CFGR1_AWD1SGL
 201:Drivers/STM32G0xx_HAL_Driver/Inc/stm32g0xx_ll_adc.h **** #define ADC_AWD_CR23_CHANNEL_MASK          (ADC_AWD2CR_AWD2CH)
 202:Drivers/STM32G0xx_HAL_Driver/Inc/stm32g0xx_ll_adc.h **** #define ADC_AWD_CR_ALL_CHANNEL_MASK        (ADC_AWD_CR1_CHANNEL_MASK | ADC_AWD_CR23_CHANNEL_MASK)
 203:Drivers/STM32G0xx_HAL_Driver/Inc/stm32g0xx_ll_adc.h **** 
 204:Drivers/STM32G0xx_HAL_Driver/Inc/stm32g0xx_ll_adc.h **** #define ADC_AWD_CRX_REGOFFSET_POS          (20UL)                      /* Position of bits ADC_AWD_
 205:Drivers/STM32G0xx_HAL_Driver/Inc/stm32g0xx_ll_adc.h ****                                                                           in ADC_AWD_CRX_REGOFFSET_
 206:Drivers/STM32G0xx_HAL_Driver/Inc/stm32g0xx_ll_adc.h **** 
 207:Drivers/STM32G0xx_HAL_Driver/Inc/stm32g0xx_ll_adc.h **** /* Internal register offset for ADC analog watchdog threshold configuration */
 208:Drivers/STM32G0xx_HAL_Driver/Inc/stm32g0xx_ll_adc.h **** #define ADC_AWD_TR1_REGOFFSET              (ADC_AWD_CR1_REGOFFSET)
 209:Drivers/STM32G0xx_HAL_Driver/Inc/stm32g0xx_ll_adc.h **** #define ADC_AWD_TR2_REGOFFSET              (ADC_AWD_CR2_REGOFFSET)
 210:Drivers/STM32G0xx_HAL_Driver/Inc/stm32g0xx_ll_adc.h **** #define ADC_AWD_TR3_REGOFFSET              (ADC_AWD_CR3_REGOFFSET + (1UL << ADC_AWD_CRX_REGOFFSET_B
 211:Drivers/STM32G0xx_HAL_Driver/Inc/stm32g0xx_ll_adc.h **** #define ADC_AWD_TRX_REGOFFSET_MASK         (ADC_AWD_TR1_REGOFFSET | ADC_AWD_TR2_REGOFFSET | ADC_AWD
 212:Drivers/STM32G0xx_HAL_Driver/Inc/stm32g0xx_ll_adc.h **** #define ADC_AWD_TRX_REGOFFSET_POS          (ADC_AWD_CRX_REGOFFSET_POS)      /* Position of bits ADC
 213:Drivers/STM32G0xx_HAL_Driver/Inc/stm32g0xx_ll_adc.h ****                                                                                in ADC_AWD_TRX_REGOF
 214:Drivers/STM32G0xx_HAL_Driver/Inc/stm32g0xx_ll_adc.h **** #define ADC_AWD_TRX_BIT_HIGH_MASK          (0x00010000UL)                   /* Selection of 1 bit t
 215:Drivers/STM32G0xx_HAL_Driver/Inc/stm32g0xx_ll_adc.h ****                                                                                threshold high: mask
 216:Drivers/STM32G0xx_HAL_Driver/Inc/stm32g0xx_ll_adc.h **** #define ADC_AWD_TRX_BIT_HIGH_POS           (16UL)                           /* Selection of 1 bit t
 217:Drivers/STM32G0xx_HAL_Driver/Inc/stm32g0xx_ll_adc.h ****                                                                                threshold high: posi
 218:Drivers/STM32G0xx_HAL_Driver/Inc/stm32g0xx_ll_adc.h **** #define ADC_AWD_TRX_BIT_HIGH_SHIFT4        (ADC_AWD_TRX_BIT_HIGH_POS - 4UL) /* Shift of bit ADC_AWD
 219:Drivers/STM32G0xx_HAL_Driver/Inc/stm32g0xx_ll_adc.h ****                                                                                position to perform 
 220:Drivers/STM32G0xx_HAL_Driver/Inc/stm32g0xx_ll_adc.h **** #define ADC_AWD_TRX_REGOFFSET_BITOFFSET_POS (20UL)
 221:Drivers/STM32G0xx_HAL_Driver/Inc/stm32g0xx_ll_adc.h **** 
 222:Drivers/STM32G0xx_HAL_Driver/Inc/stm32g0xx_ll_adc.h **** 
 223:Drivers/STM32G0xx_HAL_Driver/Inc/stm32g0xx_ll_adc.h **** 
 224:Drivers/STM32G0xx_HAL_Driver/Inc/stm32g0xx_ll_adc.h **** /* ADC registers bits positions */
 225:Drivers/STM32G0xx_HAL_Driver/Inc/stm32g0xx_ll_adc.h **** #define ADC_CFGR1_RES_BITOFFSET_POS        ( 3UL) /* Equivalent to bitfield "ADC_CFGR1_RES" positio
 226:Drivers/STM32G0xx_HAL_Driver/Inc/stm32g0xx_ll_adc.h **** #define ADC_CFGR1_AWDSGL_BITOFFSET_POS     (22UL) /* Equivalent to bitfield "ADC_CFGR1_AWDSGL" posi
 227:Drivers/STM32G0xx_HAL_Driver/Inc/stm32g0xx_ll_adc.h **** #define ADC_TR1_HT1_BITOFFSET_POS          (16UL) /* Equivalent to bitfield "ADC_TR1_HT1" position 
 228:Drivers/STM32G0xx_HAL_Driver/Inc/stm32g0xx_ll_adc.h **** #define ADC_CHSELR_CHSEL0_BITOFFSET_POS    ( 0UL) /* Equivalent to bitfield "ADC_CHSELR_CHSEL0" pos
 229:Drivers/STM32G0xx_HAL_Driver/Inc/stm32g0xx_ll_adc.h **** #define ADC_CHSELR_CHSEL1_BITOFFSET_POS    ( 1UL) /* Equivalent to bitfield "ADC_CHSELR_CHSEL1" pos
ARM GAS  C:\Users\tugru\AppData\Local\Temp\ccFmcKQs.s 			page 23


 230:Drivers/STM32G0xx_HAL_Driver/Inc/stm32g0xx_ll_adc.h **** #define ADC_CHSELR_CHSEL2_BITOFFSET_POS    ( 2UL) /* Equivalent to bitfield "ADC_CHSELR_CHSEL2" pos
 231:Drivers/STM32G0xx_HAL_Driver/Inc/stm32g0xx_ll_adc.h **** #define ADC_CHSELR_CHSEL3_BITOFFSET_POS    ( 3UL) /* Equivalent to bitfield "ADC_CHSELR_CHSEL3" pos
 232:Drivers/STM32G0xx_HAL_Driver/Inc/stm32g0xx_ll_adc.h **** #define ADC_CHSELR_CHSEL4_BITOFFSET_POS    ( 4UL) /* Equivalent to bitfield "ADC_CHSELR_CHSEL4" pos
 233:Drivers/STM32G0xx_HAL_Driver/Inc/stm32g0xx_ll_adc.h **** #define ADC_CHSELR_CHSEL5_BITOFFSET_POS    ( 5UL) /* Equivalent to bitfield "ADC_CHSELR_CHSEL5" pos
 234:Drivers/STM32G0xx_HAL_Driver/Inc/stm32g0xx_ll_adc.h **** #define ADC_CHSELR_CHSEL6_BITOFFSET_POS    ( 6UL) /* Equivalent to bitfield "ADC_CHSELR_CHSEL6" pos
 235:Drivers/STM32G0xx_HAL_Driver/Inc/stm32g0xx_ll_adc.h **** #define ADC_CHSELR_CHSEL7_BITOFFSET_POS    ( 7UL) /* Equivalent to bitfield "ADC_CHSELR_CHSEL7" pos
 236:Drivers/STM32G0xx_HAL_Driver/Inc/stm32g0xx_ll_adc.h **** #define ADC_CHSELR_CHSEL8_BITOFFSET_POS    ( 8UL) /* Equivalent to bitfield "ADC_CHSELR_CHSEL8" pos
 237:Drivers/STM32G0xx_HAL_Driver/Inc/stm32g0xx_ll_adc.h **** #define ADC_CHSELR_CHSEL9_BITOFFSET_POS    ( 9UL) /* Equivalent to bitfield "ADC_CHSELR_CHSEL9" pos
 238:Drivers/STM32G0xx_HAL_Driver/Inc/stm32g0xx_ll_adc.h **** #define ADC_CHSELR_CHSEL10_BITOFFSET_POS   (10UL) /* Equivalent to bitfield "ADC_CHSELR_CHSEL10" po
 239:Drivers/STM32G0xx_HAL_Driver/Inc/stm32g0xx_ll_adc.h **** #define ADC_CHSELR_CHSEL11_BITOFFSET_POS   (11UL) /* Equivalent to bitfield "ADC_CHSELR_CHSEL11" po
 240:Drivers/STM32G0xx_HAL_Driver/Inc/stm32g0xx_ll_adc.h **** #define ADC_CHSELR_CHSEL12_BITOFFSET_POS   (12UL) /* Equivalent to bitfield "ADC_CHSELR_CHSEL12" po
 241:Drivers/STM32G0xx_HAL_Driver/Inc/stm32g0xx_ll_adc.h **** #define ADC_CHSELR_CHSEL13_BITOFFSET_POS   (13UL) /* Equivalent to bitfield "ADC_CHSELR_CHSEL13" po
 242:Drivers/STM32G0xx_HAL_Driver/Inc/stm32g0xx_ll_adc.h **** #define ADC_CHSELR_CHSEL14_BITOFFSET_POS   (14UL) /* Equivalent to bitfield "ADC_CHSELR_CHSEL14" po
 243:Drivers/STM32G0xx_HAL_Driver/Inc/stm32g0xx_ll_adc.h **** #define ADC_CHSELR_CHSEL15_BITOFFSET_POS   (15UL) /* Equivalent to bitfield "ADC_CHSELR_CHSEL15" po
 244:Drivers/STM32G0xx_HAL_Driver/Inc/stm32g0xx_ll_adc.h **** #define ADC_CHSELR_CHSEL16_BITOFFSET_POS   (16UL) /* Equivalent to bitfield "ADC_CHSELR_CHSEL16" po
 245:Drivers/STM32G0xx_HAL_Driver/Inc/stm32g0xx_ll_adc.h **** #define ADC_CHSELR_CHSEL17_BITOFFSET_POS   (17UL) /* Equivalent to bitfield "ADC_CHSELR_CHSEL17" po
 246:Drivers/STM32G0xx_HAL_Driver/Inc/stm32g0xx_ll_adc.h **** #define ADC_CHSELR_CHSEL18_BITOFFSET_POS   (18UL) /* Equivalent to bitfield "ADC_CHSELR_CHSEL18" po
 247:Drivers/STM32G0xx_HAL_Driver/Inc/stm32g0xx_ll_adc.h **** #define ADC_SMPR_SMP1_BITOFFSET_POS        ( 0UL) /* Equivalent to bitfield "ADC_SMPR_SMP1" positio
 248:Drivers/STM32G0xx_HAL_Driver/Inc/stm32g0xx_ll_adc.h **** #define ADC_SMPR_SMP2_BITOFFSET_POS        ( 4UL) /* Equivalent to bitfield "ADC_SMPR_SMP2" positio
 249:Drivers/STM32G0xx_HAL_Driver/Inc/stm32g0xx_ll_adc.h **** #define ADC_SMPR_SMPSEL0_BITOFFSET_POS     ( 8UL) /* Equivalent to bitfield "ADC_SMPR_SMPSEL0" posi
 250:Drivers/STM32G0xx_HAL_Driver/Inc/stm32g0xx_ll_adc.h **** 
 251:Drivers/STM32G0xx_HAL_Driver/Inc/stm32g0xx_ll_adc.h **** 
 252:Drivers/STM32G0xx_HAL_Driver/Inc/stm32g0xx_ll_adc.h **** /* ADC registers bits groups */
 253:Drivers/STM32G0xx_HAL_Driver/Inc/stm32g0xx_ll_adc.h **** #define ADC_CR_BITS_PROPERTY_RS            (ADC_CR_ADCAL | ADC_CR_ADEN | ADC_CR_ADDIS \
 254:Drivers/STM32G0xx_HAL_Driver/Inc/stm32g0xx_ll_adc.h ****                                             | ADC_CR_ADSTART | ADC_CR_ADSTP)            /* ADC regi
 255:Drivers/STM32G0xx_HAL_Driver/Inc/stm32g0xx_ll_adc.h ****                                            HW property "rs": Software can read as well as set this 
 256:Drivers/STM32G0xx_HAL_Driver/Inc/stm32g0xx_ll_adc.h ****                                            Writing '0' has no effect on the bit value. */
 257:Drivers/STM32G0xx_HAL_Driver/Inc/stm32g0xx_ll_adc.h **** 
 258:Drivers/STM32G0xx_HAL_Driver/Inc/stm32g0xx_ll_adc.h **** 
 259:Drivers/STM32G0xx_HAL_Driver/Inc/stm32g0xx_ll_adc.h **** /* ADC internal channels related definitions */
 260:Drivers/STM32G0xx_HAL_Driver/Inc/stm32g0xx_ll_adc.h **** /* Internal voltage reference VrefInt */
 261:Drivers/STM32G0xx_HAL_Driver/Inc/stm32g0xx_ll_adc.h **** #define VREFINT_CAL_ADDR                   ((uint16_t*) (0x1FFF75AAUL)) /* Internal voltage referen
 262:Drivers/STM32G0xx_HAL_Driver/Inc/stm32g0xx_ll_adc.h ****                                            parameter VREFINT_CAL: VrefInt ADC raw data acquired at 
 263:Drivers/STM32G0xx_HAL_Driver/Inc/stm32g0xx_ll_adc.h ****                                            (tolerance: +-5 DegC), Vref+ = 3.0 V (tolerance: +-10 mV
 264:Drivers/STM32G0xx_HAL_Driver/Inc/stm32g0xx_ll_adc.h **** #define VREFINT_CAL_VREF                   ( 3000UL)                    /* Analog voltage reference
 265:Drivers/STM32G0xx_HAL_Driver/Inc/stm32g0xx_ll_adc.h ****                                            with which VrefInt has been calibrated in production
 266:Drivers/STM32G0xx_HAL_Driver/Inc/stm32g0xx_ll_adc.h ****                                            (tolerance: +-10 mV) (unit: mV). */
 267:Drivers/STM32G0xx_HAL_Driver/Inc/stm32g0xx_ll_adc.h **** /* Temperature sensor */
 268:Drivers/STM32G0xx_HAL_Driver/Inc/stm32g0xx_ll_adc.h **** #define TEMPSENSOR_CAL1_ADDR               ((uint16_t*) (0x1FFF75A8UL)) /* Address of parameter TS_
 269:Drivers/STM32G0xx_HAL_Driver/Inc/stm32g0xx_ll_adc.h ****                                            temperature sensor ADC raw data acquired at temperature 
 270:Drivers/STM32G0xx_HAL_Driver/Inc/stm32g0xx_ll_adc.h ****                                            (tolerance: +-5 DegC), Vref+ = 3.0 V (tolerance: +-10 mV
 271:Drivers/STM32G0xx_HAL_Driver/Inc/stm32g0xx_ll_adc.h **** #define TEMPSENSOR_CAL2_ADDR               ((uint16_t*) (0x1FFF75CAUL)) /* Address of parameter TS_
 272:Drivers/STM32G0xx_HAL_Driver/Inc/stm32g0xx_ll_adc.h ****                                            temperature sensor ADC raw data acquired at temperature 
 273:Drivers/STM32G0xx_HAL_Driver/Inc/stm32g0xx_ll_adc.h ****                                            (tolerance: +-5 DegC), Vref+ = 3.0 V (tolerance: +-10 mV
 274:Drivers/STM32G0xx_HAL_Driver/Inc/stm32g0xx_ll_adc.h **** #define TEMPSENSOR_CAL1_TEMP               (( int32_t)   30)            /* Temperature at which tem
 275:Drivers/STM32G0xx_HAL_Driver/Inc/stm32g0xx_ll_adc.h ****                                            has been calibrated in production for data into TEMPSENS
 276:Drivers/STM32G0xx_HAL_Driver/Inc/stm32g0xx_ll_adc.h ****                                            (tolerance: +-5 DegC) (unit: DegC). */
 277:Drivers/STM32G0xx_HAL_Driver/Inc/stm32g0xx_ll_adc.h **** #define TEMPSENSOR_CAL2_TEMP               (( int32_t)  130)            /* Temperature at which tem
 278:Drivers/STM32G0xx_HAL_Driver/Inc/stm32g0xx_ll_adc.h ****                                            has been calibrated in production for data into TEMPSENS
 279:Drivers/STM32G0xx_HAL_Driver/Inc/stm32g0xx_ll_adc.h ****                                            (tolerance: +-5 DegC) (unit: DegC). */
 280:Drivers/STM32G0xx_HAL_Driver/Inc/stm32g0xx_ll_adc.h **** #define TEMPSENSOR_CAL_VREFANALOG          ( 3000UL)                    /* Analog voltage reference
 281:Drivers/STM32G0xx_HAL_Driver/Inc/stm32g0xx_ll_adc.h ****                                            with which temperature sensor has been calibrated in pro
 282:Drivers/STM32G0xx_HAL_Driver/Inc/stm32g0xx_ll_adc.h ****                                            (tolerance: +-10 mV) (unit: mV). */
 283:Drivers/STM32G0xx_HAL_Driver/Inc/stm32g0xx_ll_adc.h **** 
 284:Drivers/STM32G0xx_HAL_Driver/Inc/stm32g0xx_ll_adc.h **** /**
 285:Drivers/STM32G0xx_HAL_Driver/Inc/stm32g0xx_ll_adc.h ****   * @}
 286:Drivers/STM32G0xx_HAL_Driver/Inc/stm32g0xx_ll_adc.h ****   */
ARM GAS  C:\Users\tugru\AppData\Local\Temp\ccFmcKQs.s 			page 24


 287:Drivers/STM32G0xx_HAL_Driver/Inc/stm32g0xx_ll_adc.h **** 
 288:Drivers/STM32G0xx_HAL_Driver/Inc/stm32g0xx_ll_adc.h **** 
 289:Drivers/STM32G0xx_HAL_Driver/Inc/stm32g0xx_ll_adc.h **** /* Private macros ------------------------------------------------------------*/
 290:Drivers/STM32G0xx_HAL_Driver/Inc/stm32g0xx_ll_adc.h **** /** @defgroup ADC_LL_Private_Macros ADC Private Macros
 291:Drivers/STM32G0xx_HAL_Driver/Inc/stm32g0xx_ll_adc.h ****   * @{
 292:Drivers/STM32G0xx_HAL_Driver/Inc/stm32g0xx_ll_adc.h ****   */
 293:Drivers/STM32G0xx_HAL_Driver/Inc/stm32g0xx_ll_adc.h **** 
 294:Drivers/STM32G0xx_HAL_Driver/Inc/stm32g0xx_ll_adc.h **** /**
 295:Drivers/STM32G0xx_HAL_Driver/Inc/stm32g0xx_ll_adc.h ****   * @brief  Driver macro reserved for internal use: set a pointer to
 296:Drivers/STM32G0xx_HAL_Driver/Inc/stm32g0xx_ll_adc.h ****   *         a register from a register basis from which an offset
 297:Drivers/STM32G0xx_HAL_Driver/Inc/stm32g0xx_ll_adc.h ****   *         is applied.
 298:Drivers/STM32G0xx_HAL_Driver/Inc/stm32g0xx_ll_adc.h ****   * @param  __REG__ Register basis from which the offset is applied.
 299:Drivers/STM32G0xx_HAL_Driver/Inc/stm32g0xx_ll_adc.h ****   * @param  __REG_OFFFSET__ Offset to be applied (unit: number of registers).
 300:Drivers/STM32G0xx_HAL_Driver/Inc/stm32g0xx_ll_adc.h ****   * @retval Pointer to register address
 301:Drivers/STM32G0xx_HAL_Driver/Inc/stm32g0xx_ll_adc.h ****   */
 302:Drivers/STM32G0xx_HAL_Driver/Inc/stm32g0xx_ll_adc.h **** #define __ADC_PTR_REG_OFFSET(__REG__, __REG_OFFFSET__)                         \
 303:Drivers/STM32G0xx_HAL_Driver/Inc/stm32g0xx_ll_adc.h ****   ((__IO uint32_t *)((uint32_t) ((uint32_t)(&(__REG__)) + ((__REG_OFFFSET__) << 2UL))))
 304:Drivers/STM32G0xx_HAL_Driver/Inc/stm32g0xx_ll_adc.h **** 
 305:Drivers/STM32G0xx_HAL_Driver/Inc/stm32g0xx_ll_adc.h **** /**
 306:Drivers/STM32G0xx_HAL_Driver/Inc/stm32g0xx_ll_adc.h ****   * @}
 307:Drivers/STM32G0xx_HAL_Driver/Inc/stm32g0xx_ll_adc.h ****   */
 308:Drivers/STM32G0xx_HAL_Driver/Inc/stm32g0xx_ll_adc.h **** 
 309:Drivers/STM32G0xx_HAL_Driver/Inc/stm32g0xx_ll_adc.h **** 
 310:Drivers/STM32G0xx_HAL_Driver/Inc/stm32g0xx_ll_adc.h **** /* Exported types ------------------------------------------------------------*/
 311:Drivers/STM32G0xx_HAL_Driver/Inc/stm32g0xx_ll_adc.h **** #if defined(USE_FULL_LL_DRIVER)
 312:Drivers/STM32G0xx_HAL_Driver/Inc/stm32g0xx_ll_adc.h **** /** @defgroup ADC_LL_ES_INIT ADC Exported Init structure
 313:Drivers/STM32G0xx_HAL_Driver/Inc/stm32g0xx_ll_adc.h ****   * @{
 314:Drivers/STM32G0xx_HAL_Driver/Inc/stm32g0xx_ll_adc.h ****   */
 315:Drivers/STM32G0xx_HAL_Driver/Inc/stm32g0xx_ll_adc.h **** 
 316:Drivers/STM32G0xx_HAL_Driver/Inc/stm32g0xx_ll_adc.h **** /**
 317:Drivers/STM32G0xx_HAL_Driver/Inc/stm32g0xx_ll_adc.h ****   * @brief  Structure definition of some features of ADC common parameters
 318:Drivers/STM32G0xx_HAL_Driver/Inc/stm32g0xx_ll_adc.h ****   *         and multimode
 319:Drivers/STM32G0xx_HAL_Driver/Inc/stm32g0xx_ll_adc.h ****   *         (all ADC instances belonging to the same ADC common instance).
 320:Drivers/STM32G0xx_HAL_Driver/Inc/stm32g0xx_ll_adc.h ****   * @note   The setting of these parameters by function @ref LL_ADC_CommonInit()
 321:Drivers/STM32G0xx_HAL_Driver/Inc/stm32g0xx_ll_adc.h ****   *         is conditioned to ADC instances state (all ADC instances
 322:Drivers/STM32G0xx_HAL_Driver/Inc/stm32g0xx_ll_adc.h ****   *         sharing the same ADC common instance):
 323:Drivers/STM32G0xx_HAL_Driver/Inc/stm32g0xx_ll_adc.h ****   *         All ADC instances sharing the same ADC common instance must be
 324:Drivers/STM32G0xx_HAL_Driver/Inc/stm32g0xx_ll_adc.h ****   *         disabled.
 325:Drivers/STM32G0xx_HAL_Driver/Inc/stm32g0xx_ll_adc.h ****   */
 326:Drivers/STM32G0xx_HAL_Driver/Inc/stm32g0xx_ll_adc.h **** typedef struct
 327:Drivers/STM32G0xx_HAL_Driver/Inc/stm32g0xx_ll_adc.h **** {
 328:Drivers/STM32G0xx_HAL_Driver/Inc/stm32g0xx_ll_adc.h ****   uint32_t CommonClock;                 /*!< Set parameter common to several ADC: Clock source and 
 329:Drivers/STM32G0xx_HAL_Driver/Inc/stm32g0xx_ll_adc.h ****                                              This parameter can be a value of @ref ADC_LL_EC_COMMON
 330:Drivers/STM32G0xx_HAL_Driver/Inc/stm32g0xx_ll_adc.h ****                                              This feature can be modified afterwards using unitary 
 331:Drivers/STM32G0xx_HAL_Driver/Inc/stm32g0xx_ll_adc.h ****                                              @ref LL_ADC_SetCommonClock(). */
 332:Drivers/STM32G0xx_HAL_Driver/Inc/stm32g0xx_ll_adc.h **** 
 333:Drivers/STM32G0xx_HAL_Driver/Inc/stm32g0xx_ll_adc.h **** } LL_ADC_CommonInitTypeDef;
 334:Drivers/STM32G0xx_HAL_Driver/Inc/stm32g0xx_ll_adc.h **** 
 335:Drivers/STM32G0xx_HAL_Driver/Inc/stm32g0xx_ll_adc.h **** /**
 336:Drivers/STM32G0xx_HAL_Driver/Inc/stm32g0xx_ll_adc.h ****   * @brief  Structure definition of some features of ADC instance.
 337:Drivers/STM32G0xx_HAL_Driver/Inc/stm32g0xx_ll_adc.h ****   * @note   These parameters have an impact on ADC scope: ADC instance.
 338:Drivers/STM32G0xx_HAL_Driver/Inc/stm32g0xx_ll_adc.h ****   *         Refer to corresponding unitary functions into
 339:Drivers/STM32G0xx_HAL_Driver/Inc/stm32g0xx_ll_adc.h ****   *         @ref ADC_LL_EF_Configuration_ADC_Instance .
 340:Drivers/STM32G0xx_HAL_Driver/Inc/stm32g0xx_ll_adc.h ****   * @note   The setting of these parameters by function @ref LL_ADC_Init()
 341:Drivers/STM32G0xx_HAL_Driver/Inc/stm32g0xx_ll_adc.h ****   *         is conditioned to ADC state:
 342:Drivers/STM32G0xx_HAL_Driver/Inc/stm32g0xx_ll_adc.h ****   *         ADC instance must be disabled.
 343:Drivers/STM32G0xx_HAL_Driver/Inc/stm32g0xx_ll_adc.h ****   *         This condition is applied to all ADC features, for efficiency
ARM GAS  C:\Users\tugru\AppData\Local\Temp\ccFmcKQs.s 			page 25


 344:Drivers/STM32G0xx_HAL_Driver/Inc/stm32g0xx_ll_adc.h ****   *         and compatibility over all STM32 series. However, the different
 345:Drivers/STM32G0xx_HAL_Driver/Inc/stm32g0xx_ll_adc.h ****   *         features can be set under different ADC state conditions
 346:Drivers/STM32G0xx_HAL_Driver/Inc/stm32g0xx_ll_adc.h ****   *         (setting possible with ADC enabled without conversion on going,
 347:Drivers/STM32G0xx_HAL_Driver/Inc/stm32g0xx_ll_adc.h ****   *         ADC enabled with conversion on going, ...)
 348:Drivers/STM32G0xx_HAL_Driver/Inc/stm32g0xx_ll_adc.h ****   *         Each feature can be updated afterwards with a unitary function
 349:Drivers/STM32G0xx_HAL_Driver/Inc/stm32g0xx_ll_adc.h ****   *         and potentially with ADC in a different state than disabled,
 350:Drivers/STM32G0xx_HAL_Driver/Inc/stm32g0xx_ll_adc.h ****   *         refer to description of each function for setting
 351:Drivers/STM32G0xx_HAL_Driver/Inc/stm32g0xx_ll_adc.h ****   *         conditioned to ADC state.
 352:Drivers/STM32G0xx_HAL_Driver/Inc/stm32g0xx_ll_adc.h ****   */
 353:Drivers/STM32G0xx_HAL_Driver/Inc/stm32g0xx_ll_adc.h **** typedef struct
 354:Drivers/STM32G0xx_HAL_Driver/Inc/stm32g0xx_ll_adc.h **** {
 355:Drivers/STM32G0xx_HAL_Driver/Inc/stm32g0xx_ll_adc.h ****   uint32_t Clock;                       /*!< Set ADC instance clock source and prescaler.
 356:Drivers/STM32G0xx_HAL_Driver/Inc/stm32g0xx_ll_adc.h ****                                              This parameter can be a value of @ref ADC_LL_EC_CLOCK_
 357:Drivers/STM32G0xx_HAL_Driver/Inc/stm32g0xx_ll_adc.h ****                                             @note On this STM32 series, this parameter has some clo
 358:Drivers/STM32G0xx_HAL_Driver/Inc/stm32g0xx_ll_adc.h ****                                                   ADC clock synchronous (from PCLK) with prescaler 
 359:Drivers/STM32G0xx_HAL_Driver/Inc/stm32g0xx_ll_adc.h ****                                                   only if PCLK has a 50% duty clock cycle (APB pres
 360:Drivers/STM32G0xx_HAL_Driver/Inc/stm32g0xx_ll_adc.h ****                                                   inside the RCC must be bypassed and the system cl
 361:Drivers/STM32G0xx_HAL_Driver/Inc/stm32g0xx_ll_adc.h ****                                                   cycle).
 362:Drivers/STM32G0xx_HAL_Driver/Inc/stm32g0xx_ll_adc.h ****                                              This feature can be modified afterwards using unitary 
 363:Drivers/STM32G0xx_HAL_Driver/Inc/stm32g0xx_ll_adc.h ****                                              @ref LL_ADC_SetClock().
 364:Drivers/STM32G0xx_HAL_Driver/Inc/stm32g0xx_ll_adc.h ****                                              For more details, refer to description of this functio
 365:Drivers/STM32G0xx_HAL_Driver/Inc/stm32g0xx_ll_adc.h **** 
 366:Drivers/STM32G0xx_HAL_Driver/Inc/stm32g0xx_ll_adc.h ****   uint32_t Resolution;                  /*!< Set ADC resolution.
 367:Drivers/STM32G0xx_HAL_Driver/Inc/stm32g0xx_ll_adc.h ****                                              This parameter can be a value of @ref ADC_LL_EC_RESOLU
 368:Drivers/STM32G0xx_HAL_Driver/Inc/stm32g0xx_ll_adc.h ****                                              This feature can be modified afterwards using unitary 
 369:Drivers/STM32G0xx_HAL_Driver/Inc/stm32g0xx_ll_adc.h ****                                              @ref LL_ADC_SetResolution(). */
 370:Drivers/STM32G0xx_HAL_Driver/Inc/stm32g0xx_ll_adc.h **** 
 371:Drivers/STM32G0xx_HAL_Driver/Inc/stm32g0xx_ll_adc.h ****   uint32_t DataAlignment;               /*!< Set ADC conversion data alignment.
 372:Drivers/STM32G0xx_HAL_Driver/Inc/stm32g0xx_ll_adc.h ****                                              This parameter can be a value of @ref ADC_LL_EC_DATA_A
 373:Drivers/STM32G0xx_HAL_Driver/Inc/stm32g0xx_ll_adc.h ****                                              This feature can be modified afterwards using unitary 
 374:Drivers/STM32G0xx_HAL_Driver/Inc/stm32g0xx_ll_adc.h ****                                              @ref LL_ADC_SetDataAlignment(). */
 375:Drivers/STM32G0xx_HAL_Driver/Inc/stm32g0xx_ll_adc.h **** 
 376:Drivers/STM32G0xx_HAL_Driver/Inc/stm32g0xx_ll_adc.h ****   uint32_t LowPowerMode;                /*!< Set ADC low power mode.
 377:Drivers/STM32G0xx_HAL_Driver/Inc/stm32g0xx_ll_adc.h ****                                              This parameter can be a value of @ref ADC_LL_EC_LP_MOD
 378:Drivers/STM32G0xx_HAL_Driver/Inc/stm32g0xx_ll_adc.h ****                                              This feature can be modified afterwards using unitary 
 379:Drivers/STM32G0xx_HAL_Driver/Inc/stm32g0xx_ll_adc.h ****                                              @ref LL_ADC_SetLowPowerMode(). */
 380:Drivers/STM32G0xx_HAL_Driver/Inc/stm32g0xx_ll_adc.h **** 
 381:Drivers/STM32G0xx_HAL_Driver/Inc/stm32g0xx_ll_adc.h **** } LL_ADC_InitTypeDef;
 382:Drivers/STM32G0xx_HAL_Driver/Inc/stm32g0xx_ll_adc.h **** 
 383:Drivers/STM32G0xx_HAL_Driver/Inc/stm32g0xx_ll_adc.h **** /**
 384:Drivers/STM32G0xx_HAL_Driver/Inc/stm32g0xx_ll_adc.h ****   * @brief  Structure definition of some features of ADC group regular.
 385:Drivers/STM32G0xx_HAL_Driver/Inc/stm32g0xx_ll_adc.h ****   * @note   These parameters have an impact on ADC scope: ADC group regular.
 386:Drivers/STM32G0xx_HAL_Driver/Inc/stm32g0xx_ll_adc.h ****   *         Refer to corresponding unitary functions into
 387:Drivers/STM32G0xx_HAL_Driver/Inc/stm32g0xx_ll_adc.h ****   *         @ref ADC_LL_EF_Configuration_ADC_Group_Regular
 388:Drivers/STM32G0xx_HAL_Driver/Inc/stm32g0xx_ll_adc.h ****   *         (functions with prefix "REG").
 389:Drivers/STM32G0xx_HAL_Driver/Inc/stm32g0xx_ll_adc.h ****   * @note   The setting of these parameters by function @ref LL_ADC_REG_Init()
 390:Drivers/STM32G0xx_HAL_Driver/Inc/stm32g0xx_ll_adc.h ****   *         is conditioned to ADC state:
 391:Drivers/STM32G0xx_HAL_Driver/Inc/stm32g0xx_ll_adc.h ****   *         ADC instance must be disabled.
 392:Drivers/STM32G0xx_HAL_Driver/Inc/stm32g0xx_ll_adc.h ****   *         This condition is applied to all ADC features, for efficiency
 393:Drivers/STM32G0xx_HAL_Driver/Inc/stm32g0xx_ll_adc.h ****   *         and compatibility over all STM32 series. However, the different
 394:Drivers/STM32G0xx_HAL_Driver/Inc/stm32g0xx_ll_adc.h ****   *         features can be set under different ADC state conditions
 395:Drivers/STM32G0xx_HAL_Driver/Inc/stm32g0xx_ll_adc.h ****   *         (setting possible with ADC enabled without conversion on going,
 396:Drivers/STM32G0xx_HAL_Driver/Inc/stm32g0xx_ll_adc.h ****   *         ADC enabled with conversion on going, ...)
 397:Drivers/STM32G0xx_HAL_Driver/Inc/stm32g0xx_ll_adc.h ****   *         Each feature can be updated afterwards with a unitary function
 398:Drivers/STM32G0xx_HAL_Driver/Inc/stm32g0xx_ll_adc.h ****   *         and potentially with ADC in a different state than disabled,
 399:Drivers/STM32G0xx_HAL_Driver/Inc/stm32g0xx_ll_adc.h ****   *         refer to description of each function for setting
 400:Drivers/STM32G0xx_HAL_Driver/Inc/stm32g0xx_ll_adc.h ****   *         conditioned to ADC state.
ARM GAS  C:\Users\tugru\AppData\Local\Temp\ccFmcKQs.s 			page 26


 401:Drivers/STM32G0xx_HAL_Driver/Inc/stm32g0xx_ll_adc.h ****   */
 402:Drivers/STM32G0xx_HAL_Driver/Inc/stm32g0xx_ll_adc.h **** typedef struct
 403:Drivers/STM32G0xx_HAL_Driver/Inc/stm32g0xx_ll_adc.h **** {
 404:Drivers/STM32G0xx_HAL_Driver/Inc/stm32g0xx_ll_adc.h ****   uint32_t TriggerSource;               /*!< Set ADC group regular conversion trigger source: inter
 405:Drivers/STM32G0xx_HAL_Driver/Inc/stm32g0xx_ll_adc.h ****                                              from external peripheral (timer event, external interr
 406:Drivers/STM32G0xx_HAL_Driver/Inc/stm32g0xx_ll_adc.h ****                                              This parameter can be a value of @ref ADC_LL_EC_REG_TR
 407:Drivers/STM32G0xx_HAL_Driver/Inc/stm32g0xx_ll_adc.h ****                                              @note On this STM32 series, setting trigger source to 
 408:Drivers/STM32G0xx_HAL_Driver/Inc/stm32g0xx_ll_adc.h ****                                                    set trigger polarity to rising edge(default sett
 409:Drivers/STM32G0xx_HAL_Driver/Inc/stm32g0xx_ll_adc.h ****                                                    with some ADC on other STM32 series having this 
 410:Drivers/STM32G0xx_HAL_Driver/Inc/stm32g0xx_ll_adc.h ****                                                    default value).
 411:Drivers/STM32G0xx_HAL_Driver/Inc/stm32g0xx_ll_adc.h ****                                                    In case of need to modify trigger edge, use func
 412:Drivers/STM32G0xx_HAL_Driver/Inc/stm32g0xx_ll_adc.h ****                                                    @ref LL_ADC_REG_SetTriggerEdge().
 413:Drivers/STM32G0xx_HAL_Driver/Inc/stm32g0xx_ll_adc.h ****                                              This feature can be modified afterwards using unitary 
 414:Drivers/STM32G0xx_HAL_Driver/Inc/stm32g0xx_ll_adc.h ****                                              @ref LL_ADC_REG_SetTriggerSource(). */
 415:Drivers/STM32G0xx_HAL_Driver/Inc/stm32g0xx_ll_adc.h **** 
 416:Drivers/STM32G0xx_HAL_Driver/Inc/stm32g0xx_ll_adc.h ****   uint32_t SequencerLength;             /*!< Set ADC group regular sequencer length.
 417:Drivers/STM32G0xx_HAL_Driver/Inc/stm32g0xx_ll_adc.h ****                                              @note This parameter has an effect only if group regul
 418:Drivers/STM32G0xx_HAL_Driver/Inc/stm32g0xx_ll_adc.h ****                                                     to mode "fully configurable". Refer to function
 419:Drivers/STM32G0xx_HAL_Driver/Inc/stm32g0xx_ll_adc.h ****                                                     @ref LL_ADC_REG_SetSequencerConfigurable().
 420:Drivers/STM32G0xx_HAL_Driver/Inc/stm32g0xx_ll_adc.h ****                                              This parameter can be a value of @ref ADC_LL_EC_REG_SE
 421:Drivers/STM32G0xx_HAL_Driver/Inc/stm32g0xx_ll_adc.h ****                                              This feature can be modified afterwards using unitary 
 422:Drivers/STM32G0xx_HAL_Driver/Inc/stm32g0xx_ll_adc.h ****                                              @ref LL_ADC_REG_SetSequencerLength(). */
 423:Drivers/STM32G0xx_HAL_Driver/Inc/stm32g0xx_ll_adc.h **** 
 424:Drivers/STM32G0xx_HAL_Driver/Inc/stm32g0xx_ll_adc.h ****   uint32_t SequencerDiscont;            /*!< Set ADC group regular sequencer discontinuous mode: se
 425:Drivers/STM32G0xx_HAL_Driver/Inc/stm32g0xx_ll_adc.h ****                                              and scan conversions interrupted every selected number
 426:Drivers/STM32G0xx_HAL_Driver/Inc/stm32g0xx_ll_adc.h ****                                              This parameter can be a value of @ref ADC_LL_EC_REG_SE
 427:Drivers/STM32G0xx_HAL_Driver/Inc/stm32g0xx_ll_adc.h ****                                              @note This parameter has an effect only if group regul
 428:Drivers/STM32G0xx_HAL_Driver/Inc/stm32g0xx_ll_adc.h ****                                                    enabled (depending on the sequencer mode: scan l
 429:Drivers/STM32G0xx_HAL_Driver/Inc/stm32g0xx_ll_adc.h ****                                                    more, or several ADC channels enabled in group r
 430:Drivers/STM32G0xx_HAL_Driver/Inc/stm32g0xx_ll_adc.h ****                                                    Refer to function @ref LL_ADC_REG_SetSequencerCo
 431:Drivers/STM32G0xx_HAL_Driver/Inc/stm32g0xx_ll_adc.h ****                                              This feature can be modified afterwards using unitary 
 432:Drivers/STM32G0xx_HAL_Driver/Inc/stm32g0xx_ll_adc.h ****                                              @ref LL_ADC_REG_SetSequencerDiscont(). */
 433:Drivers/STM32G0xx_HAL_Driver/Inc/stm32g0xx_ll_adc.h **** 
 434:Drivers/STM32G0xx_HAL_Driver/Inc/stm32g0xx_ll_adc.h ****   uint32_t ContinuousMode;              /*!< Set ADC continuous conversion mode on ADC group regula
 435:Drivers/STM32G0xx_HAL_Driver/Inc/stm32g0xx_ll_adc.h ****                                              conversions are performed in single mode (one conversi
 436:Drivers/STM32G0xx_HAL_Driver/Inc/stm32g0xx_ll_adc.h ****                                              continuous mode (after the first trigger, following co
 437:Drivers/STM32G0xx_HAL_Driver/Inc/stm32g0xx_ll_adc.h ****                                              successively automatically).
 438:Drivers/STM32G0xx_HAL_Driver/Inc/stm32g0xx_ll_adc.h ****                                              This parameter can be a value of @ref ADC_LL_EC_REG_CO
 439:Drivers/STM32G0xx_HAL_Driver/Inc/stm32g0xx_ll_adc.h ****                                              Note: It is not possible to enable both ADC group regu
 440:Drivers/STM32G0xx_HAL_Driver/Inc/stm32g0xx_ll_adc.h ****                                                    and discontinuous mode.
 441:Drivers/STM32G0xx_HAL_Driver/Inc/stm32g0xx_ll_adc.h ****                                              This feature can be modified afterwards using unitary 
 442:Drivers/STM32G0xx_HAL_Driver/Inc/stm32g0xx_ll_adc.h ****                                              @ref LL_ADC_REG_SetContinuousMode(). */
 443:Drivers/STM32G0xx_HAL_Driver/Inc/stm32g0xx_ll_adc.h **** 
 444:Drivers/STM32G0xx_HAL_Driver/Inc/stm32g0xx_ll_adc.h ****   uint32_t DMATransfer;                 /*!< Set ADC group regular conversion data transfer: no tra
 445:Drivers/STM32G0xx_HAL_Driver/Inc/stm32g0xx_ll_adc.h ****                                              by DMA, and DMA requests mode.
 446:Drivers/STM32G0xx_HAL_Driver/Inc/stm32g0xx_ll_adc.h ****                                              This parameter can be a value of @ref ADC_LL_EC_REG_DM
 447:Drivers/STM32G0xx_HAL_Driver/Inc/stm32g0xx_ll_adc.h ****                                              This feature can be modified afterwards using unitary 
 448:Drivers/STM32G0xx_HAL_Driver/Inc/stm32g0xx_ll_adc.h ****                                              @ref LL_ADC_REG_SetDMATransfer(). */
 449:Drivers/STM32G0xx_HAL_Driver/Inc/stm32g0xx_ll_adc.h **** 
 450:Drivers/STM32G0xx_HAL_Driver/Inc/stm32g0xx_ll_adc.h ****   uint32_t Overrun;                     /*!< Set ADC group regular behavior in case of overrun:
 451:Drivers/STM32G0xx_HAL_Driver/Inc/stm32g0xx_ll_adc.h ****                                              data preserved or overwritten.
 452:Drivers/STM32G0xx_HAL_Driver/Inc/stm32g0xx_ll_adc.h ****                                              This parameter can be a value of @ref ADC_LL_EC_REG_OV
 453:Drivers/STM32G0xx_HAL_Driver/Inc/stm32g0xx_ll_adc.h ****                                              This feature can be modified afterwards using unitary 
 454:Drivers/STM32G0xx_HAL_Driver/Inc/stm32g0xx_ll_adc.h ****                                              @ref LL_ADC_REG_SetOverrun(). */
 455:Drivers/STM32G0xx_HAL_Driver/Inc/stm32g0xx_ll_adc.h **** 
 456:Drivers/STM32G0xx_HAL_Driver/Inc/stm32g0xx_ll_adc.h **** } LL_ADC_REG_InitTypeDef;
 457:Drivers/STM32G0xx_HAL_Driver/Inc/stm32g0xx_ll_adc.h **** 
ARM GAS  C:\Users\tugru\AppData\Local\Temp\ccFmcKQs.s 			page 27


 458:Drivers/STM32G0xx_HAL_Driver/Inc/stm32g0xx_ll_adc.h **** /**
 459:Drivers/STM32G0xx_HAL_Driver/Inc/stm32g0xx_ll_adc.h ****   * @}
 460:Drivers/STM32G0xx_HAL_Driver/Inc/stm32g0xx_ll_adc.h ****   */
 461:Drivers/STM32G0xx_HAL_Driver/Inc/stm32g0xx_ll_adc.h **** #endif /* USE_FULL_LL_DRIVER */
 462:Drivers/STM32G0xx_HAL_Driver/Inc/stm32g0xx_ll_adc.h **** 
 463:Drivers/STM32G0xx_HAL_Driver/Inc/stm32g0xx_ll_adc.h **** /* Exported constants --------------------------------------------------------*/
 464:Drivers/STM32G0xx_HAL_Driver/Inc/stm32g0xx_ll_adc.h **** /** @defgroup ADC_LL_Exported_Constants ADC Exported Constants
 465:Drivers/STM32G0xx_HAL_Driver/Inc/stm32g0xx_ll_adc.h ****   * @{
 466:Drivers/STM32G0xx_HAL_Driver/Inc/stm32g0xx_ll_adc.h ****   */
 467:Drivers/STM32G0xx_HAL_Driver/Inc/stm32g0xx_ll_adc.h **** 
 468:Drivers/STM32G0xx_HAL_Driver/Inc/stm32g0xx_ll_adc.h **** /** @defgroup ADC_LL_EC_FLAG ADC flags
 469:Drivers/STM32G0xx_HAL_Driver/Inc/stm32g0xx_ll_adc.h ****   * @brief    Flags defines which can be used with LL_ADC_ReadReg function
 470:Drivers/STM32G0xx_HAL_Driver/Inc/stm32g0xx_ll_adc.h ****   * @{
 471:Drivers/STM32G0xx_HAL_Driver/Inc/stm32g0xx_ll_adc.h ****   */
 472:Drivers/STM32G0xx_HAL_Driver/Inc/stm32g0xx_ll_adc.h **** #define LL_ADC_FLAG_ADRDY                  ADC_ISR_ADRDY      /*!< ADC flag ADC instance ready */
 473:Drivers/STM32G0xx_HAL_Driver/Inc/stm32g0xx_ll_adc.h **** #define LL_ADC_FLAG_CCRDY                  ADC_ISR_CCRDY      /*!< ADC flag ADC channel configurati
 474:Drivers/STM32G0xx_HAL_Driver/Inc/stm32g0xx_ll_adc.h **** #define LL_ADC_FLAG_EOC                    ADC_ISR_EOC        /*!< ADC flag ADC group regular end o
 475:Drivers/STM32G0xx_HAL_Driver/Inc/stm32g0xx_ll_adc.h ****                                            conversion */
 476:Drivers/STM32G0xx_HAL_Driver/Inc/stm32g0xx_ll_adc.h **** #define LL_ADC_FLAG_EOS                    ADC_ISR_EOS        /*!< ADC flag ADC group regular end o
 477:Drivers/STM32G0xx_HAL_Driver/Inc/stm32g0xx_ll_adc.h ****                                            conversions */
 478:Drivers/STM32G0xx_HAL_Driver/Inc/stm32g0xx_ll_adc.h **** #define LL_ADC_FLAG_OVR                    ADC_ISR_OVR        /*!< ADC flag ADC group regular overr
 479:Drivers/STM32G0xx_HAL_Driver/Inc/stm32g0xx_ll_adc.h **** #define LL_ADC_FLAG_EOSMP                  ADC_ISR_EOSMP      /*!< ADC flag ADC group regular end o
 480:Drivers/STM32G0xx_HAL_Driver/Inc/stm32g0xx_ll_adc.h **** #define LL_ADC_FLAG_AWD1                   ADC_ISR_AWD1       /*!< ADC flag ADC analog watchdog 1 *
 481:Drivers/STM32G0xx_HAL_Driver/Inc/stm32g0xx_ll_adc.h **** #define LL_ADC_FLAG_AWD2                   ADC_ISR_AWD2       /*!< ADC flag ADC analog watchdog 2 *
 482:Drivers/STM32G0xx_HAL_Driver/Inc/stm32g0xx_ll_adc.h **** #define LL_ADC_FLAG_AWD3                   ADC_ISR_AWD3       /*!< ADC flag ADC analog watchdog 3 *
 483:Drivers/STM32G0xx_HAL_Driver/Inc/stm32g0xx_ll_adc.h **** #define LL_ADC_FLAG_EOCAL                  ADC_ISR_EOCAL      /*!< ADC flag end of calibration */
 484:Drivers/STM32G0xx_HAL_Driver/Inc/stm32g0xx_ll_adc.h **** /**
 485:Drivers/STM32G0xx_HAL_Driver/Inc/stm32g0xx_ll_adc.h ****   * @}
 486:Drivers/STM32G0xx_HAL_Driver/Inc/stm32g0xx_ll_adc.h ****   */
 487:Drivers/STM32G0xx_HAL_Driver/Inc/stm32g0xx_ll_adc.h **** 
 488:Drivers/STM32G0xx_HAL_Driver/Inc/stm32g0xx_ll_adc.h **** /** @defgroup ADC_LL_EC_IT ADC interruptions for configuration (interruption enable or disable)
 489:Drivers/STM32G0xx_HAL_Driver/Inc/stm32g0xx_ll_adc.h ****   * @brief    IT defines which can be used with LL_ADC_ReadReg and  LL_ADC_WriteReg functions
 490:Drivers/STM32G0xx_HAL_Driver/Inc/stm32g0xx_ll_adc.h ****   * @{
 491:Drivers/STM32G0xx_HAL_Driver/Inc/stm32g0xx_ll_adc.h ****   */
 492:Drivers/STM32G0xx_HAL_Driver/Inc/stm32g0xx_ll_adc.h **** #define LL_ADC_IT_ADRDY                    ADC_IER_ADRDYIE    /*!< ADC interruption ADC instance re
 493:Drivers/STM32G0xx_HAL_Driver/Inc/stm32g0xx_ll_adc.h **** #define LL_ADC_IT_CCRDY                    ADC_IER_CCRDYIE    /*!< ADC interruption channel configu
 494:Drivers/STM32G0xx_HAL_Driver/Inc/stm32g0xx_ll_adc.h **** #define LL_ADC_IT_EOC                      ADC_IER_EOCIE      /*!< ADC interruption ADC group regul
 495:Drivers/STM32G0xx_HAL_Driver/Inc/stm32g0xx_ll_adc.h ****                                                                    conversion */
 496:Drivers/STM32G0xx_HAL_Driver/Inc/stm32g0xx_ll_adc.h **** #define LL_ADC_IT_EOS                      ADC_IER_EOSIE      /*!< ADC interruption ADC group regul
 497:Drivers/STM32G0xx_HAL_Driver/Inc/stm32g0xx_ll_adc.h ****                                                                    conversions */
 498:Drivers/STM32G0xx_HAL_Driver/Inc/stm32g0xx_ll_adc.h **** #define LL_ADC_IT_OVR                      ADC_IER_OVRIE      /*!< ADC interruption ADC group regul
 499:Drivers/STM32G0xx_HAL_Driver/Inc/stm32g0xx_ll_adc.h **** #define LL_ADC_IT_EOSMP                    ADC_IER_EOSMPIE    /*!< ADC interruption ADC group regul
 500:Drivers/STM32G0xx_HAL_Driver/Inc/stm32g0xx_ll_adc.h ****                                                                    phase */
 501:Drivers/STM32G0xx_HAL_Driver/Inc/stm32g0xx_ll_adc.h **** #define LL_ADC_IT_AWD1                     ADC_IER_AWD1IE     /*!< ADC interruption ADC analog watc
 502:Drivers/STM32G0xx_HAL_Driver/Inc/stm32g0xx_ll_adc.h **** #define LL_ADC_IT_AWD2                     ADC_IER_AWD2IE     /*!< ADC interruption ADC analog watc
 503:Drivers/STM32G0xx_HAL_Driver/Inc/stm32g0xx_ll_adc.h **** #define LL_ADC_IT_AWD3                     ADC_IER_AWD3IE     /*!< ADC interruption ADC analog watc
 504:Drivers/STM32G0xx_HAL_Driver/Inc/stm32g0xx_ll_adc.h **** #define LL_ADC_IT_EOCAL                    ADC_IER_EOCALIE    /*!< ADC interruption ADC end of cali
 505:Drivers/STM32G0xx_HAL_Driver/Inc/stm32g0xx_ll_adc.h **** /**
 506:Drivers/STM32G0xx_HAL_Driver/Inc/stm32g0xx_ll_adc.h ****   * @}
 507:Drivers/STM32G0xx_HAL_Driver/Inc/stm32g0xx_ll_adc.h ****   */
 508:Drivers/STM32G0xx_HAL_Driver/Inc/stm32g0xx_ll_adc.h **** 
 509:Drivers/STM32G0xx_HAL_Driver/Inc/stm32g0xx_ll_adc.h **** /** @defgroup ADC_LL_EC_REGISTERS  ADC registers compliant with specific purpose
 510:Drivers/STM32G0xx_HAL_Driver/Inc/stm32g0xx_ll_adc.h ****   * @{
 511:Drivers/STM32G0xx_HAL_Driver/Inc/stm32g0xx_ll_adc.h ****   */
 512:Drivers/STM32G0xx_HAL_Driver/Inc/stm32g0xx_ll_adc.h **** /* List of ADC registers intended to be used (most commonly) with             */
 513:Drivers/STM32G0xx_HAL_Driver/Inc/stm32g0xx_ll_adc.h **** /* DMA transfer.                                                              */
 514:Drivers/STM32G0xx_HAL_Driver/Inc/stm32g0xx_ll_adc.h **** /* Refer to function @ref LL_ADC_DMA_GetRegAddr().                            */
ARM GAS  C:\Users\tugru\AppData\Local\Temp\ccFmcKQs.s 			page 28


 515:Drivers/STM32G0xx_HAL_Driver/Inc/stm32g0xx_ll_adc.h **** #define LL_ADC_DMA_REG_REGULAR_DATA        (0x00000000UL)      /* ADC group regular conversion data
 516:Drivers/STM32G0xx_HAL_Driver/Inc/stm32g0xx_ll_adc.h ****                                            (corresponding to register DR) to be used with ADC confi
 517:Drivers/STM32G0xx_HAL_Driver/Inc/stm32g0xx_ll_adc.h ****                                            mode. Without DMA transfer, register accessed by LL func
 518:Drivers/STM32G0xx_HAL_Driver/Inc/stm32g0xx_ll_adc.h ****                                            @ref LL_ADC_REG_ReadConversionData32() and other
 519:Drivers/STM32G0xx_HAL_Driver/Inc/stm32g0xx_ll_adc.h ****                                            functions @ref LL_ADC_REG_ReadConversionDatax() */
 520:Drivers/STM32G0xx_HAL_Driver/Inc/stm32g0xx_ll_adc.h **** /**
 521:Drivers/STM32G0xx_HAL_Driver/Inc/stm32g0xx_ll_adc.h ****   * @}
 522:Drivers/STM32G0xx_HAL_Driver/Inc/stm32g0xx_ll_adc.h ****   */
 523:Drivers/STM32G0xx_HAL_Driver/Inc/stm32g0xx_ll_adc.h **** 
 524:Drivers/STM32G0xx_HAL_Driver/Inc/stm32g0xx_ll_adc.h **** /** @defgroup ADC_LL_EC_COMMON_CLOCK_SOURCE  ADC common - Clock source
 525:Drivers/STM32G0xx_HAL_Driver/Inc/stm32g0xx_ll_adc.h ****   * @{
 526:Drivers/STM32G0xx_HAL_Driver/Inc/stm32g0xx_ll_adc.h ****   */
 527:Drivers/STM32G0xx_HAL_Driver/Inc/stm32g0xx_ll_adc.h **** #define LL_ADC_CLOCK_ASYNC_DIV1            (0x00000000UL)                      /*!< ADC asynchronou
 528:Drivers/STM32G0xx_HAL_Driver/Inc/stm32g0xx_ll_adc.h ****                                            prescaler */
 529:Drivers/STM32G0xx_HAL_Driver/Inc/stm32g0xx_ll_adc.h **** #define LL_ADC_CLOCK_ASYNC_DIV2            (ADC_CCR_PRESC_0)                   /*!< ADC asynchronou
 530:Drivers/STM32G0xx_HAL_Driver/Inc/stm32g0xx_ll_adc.h ****                                            prescaler division by 2. Setting common to ADC instances
 531:Drivers/STM32G0xx_HAL_Driver/Inc/stm32g0xx_ll_adc.h ****                                            group, applied ADC instance wise to each instance clock 
 532:Drivers/STM32G0xx_HAL_Driver/Inc/stm32g0xx_ll_adc.h ****                                            asynchronous (refer to function @ref LL_ADC_SetClock() )
 533:Drivers/STM32G0xx_HAL_Driver/Inc/stm32g0xx_ll_adc.h **** #define LL_ADC_CLOCK_ASYNC_DIV4            (ADC_CCR_PRESC_1)                   /*!< ADC asynchronou
 534:Drivers/STM32G0xx_HAL_Driver/Inc/stm32g0xx_ll_adc.h ****                                            prescaler division by 4. Setting common to ADC instances
 535:Drivers/STM32G0xx_HAL_Driver/Inc/stm32g0xx_ll_adc.h ****                                            group, applied ADC instance wise to each  instance clock
 536:Drivers/STM32G0xx_HAL_Driver/Inc/stm32g0xx_ll_adc.h ****                                            asynchronous (refer to function @ref LL_ADC_SetClock() )
 537:Drivers/STM32G0xx_HAL_Driver/Inc/stm32g0xx_ll_adc.h **** #define LL_ADC_CLOCK_ASYNC_DIV6            (ADC_CCR_PRESC_1 | ADC_CCR_PRESC_0) /*!< ADC asynchronou
 538:Drivers/STM32G0xx_HAL_Driver/Inc/stm32g0xx_ll_adc.h ****                                            prescaler division by 6. Setting common to ADC instances
 539:Drivers/STM32G0xx_HAL_Driver/Inc/stm32g0xx_ll_adc.h ****                                            group, applied ADC instance wise to each instance clock 
 540:Drivers/STM32G0xx_HAL_Driver/Inc/stm32g0xx_ll_adc.h ****                                            asynchronous (refer to function @ref LL_ADC_SetClock() )
 541:Drivers/STM32G0xx_HAL_Driver/Inc/stm32g0xx_ll_adc.h **** #define LL_ADC_CLOCK_ASYNC_DIV8            (ADC_CCR_PRESC_2)                   /*!< ADC asynchronou
 542:Drivers/STM32G0xx_HAL_Driver/Inc/stm32g0xx_ll_adc.h ****                                            prescaler division by 8. Setting common to ADC instances
 543:Drivers/STM32G0xx_HAL_Driver/Inc/stm32g0xx_ll_adc.h ****                                            group, applied ADC instance wise to each instance clock 
 544:Drivers/STM32G0xx_HAL_Driver/Inc/stm32g0xx_ll_adc.h ****                                            asynchronous (refer to function @ref LL_ADC_SetClock() )
 545:Drivers/STM32G0xx_HAL_Driver/Inc/stm32g0xx_ll_adc.h **** #define LL_ADC_CLOCK_ASYNC_DIV10           (ADC_CCR_PRESC_2 | ADC_CCR_PRESC_0) /*!< ADC asynchronou
 546:Drivers/STM32G0xx_HAL_Driver/Inc/stm32g0xx_ll_adc.h ****                                            prescaler division by 10. Setting common to ADC instance
 547:Drivers/STM32G0xx_HAL_Driver/Inc/stm32g0xx_ll_adc.h ****                                            group, applied ADC instance wise to each instance clock 
 548:Drivers/STM32G0xx_HAL_Driver/Inc/stm32g0xx_ll_adc.h ****                                            asynchronous (refer to function @ref LL_ADC_SetClock() )
 549:Drivers/STM32G0xx_HAL_Driver/Inc/stm32g0xx_ll_adc.h **** #define LL_ADC_CLOCK_ASYNC_DIV12           (ADC_CCR_PRESC_2 | ADC_CCR_PRESC_1) /*!< ADC asynchronou
 550:Drivers/STM32G0xx_HAL_Driver/Inc/stm32g0xx_ll_adc.h ****                                            prescaler division by 12. Setting common to ADC instance
 551:Drivers/STM32G0xx_HAL_Driver/Inc/stm32g0xx_ll_adc.h ****                                            group, applied ADC instance wise to each instance clock 
 552:Drivers/STM32G0xx_HAL_Driver/Inc/stm32g0xx_ll_adc.h ****                                            asynchronous (refer to function @ref LL_ADC_SetClock() )
 553:Drivers/STM32G0xx_HAL_Driver/Inc/stm32g0xx_ll_adc.h **** #define LL_ADC_CLOCK_ASYNC_DIV16           (ADC_CCR_PRESC_2 | ADC_CCR_PRESC_1 \
 554:Drivers/STM32G0xx_HAL_Driver/Inc/stm32g0xx_ll_adc.h ****                                             | ADC_CCR_PRESC_0)                  /*!< ADC asynchrono
 555:Drivers/STM32G0xx_HAL_Driver/Inc/stm32g0xx_ll_adc.h ****                                            prescaler division by 16. Setting common to ADC instance
 556:Drivers/STM32G0xx_HAL_Driver/Inc/stm32g0xx_ll_adc.h ****                                            group, applied ADC instance wise to each instance clock 
 557:Drivers/STM32G0xx_HAL_Driver/Inc/stm32g0xx_ll_adc.h ****                                            asynchronous (refer to function @ref LL_ADC_SetClock() )
 558:Drivers/STM32G0xx_HAL_Driver/Inc/stm32g0xx_ll_adc.h **** #define LL_ADC_CLOCK_ASYNC_DIV32           (ADC_CCR_PRESC_3)                   /*!< ADC asynchronou
 559:Drivers/STM32G0xx_HAL_Driver/Inc/stm32g0xx_ll_adc.h ****                                            prescaler division by 32. Setting common to ADC instance
 560:Drivers/STM32G0xx_HAL_Driver/Inc/stm32g0xx_ll_adc.h ****                                            group, applied ADC instance wise to each instance clock 
 561:Drivers/STM32G0xx_HAL_Driver/Inc/stm32g0xx_ll_adc.h ****                                            asynchronous (refer to function @ref LL_ADC_SetClock() )
 562:Drivers/STM32G0xx_HAL_Driver/Inc/stm32g0xx_ll_adc.h **** #define LL_ADC_CLOCK_ASYNC_DIV64           (ADC_CCR_PRESC_3 | ADC_CCR_PRESC_0) /*!< ADC asynchronou
 563:Drivers/STM32G0xx_HAL_Driver/Inc/stm32g0xx_ll_adc.h ****                                            prescaler division by 64. Setting common to ADC instance
 564:Drivers/STM32G0xx_HAL_Driver/Inc/stm32g0xx_ll_adc.h ****                                            group, applied ADC instance wise to each instance clock 
 565:Drivers/STM32G0xx_HAL_Driver/Inc/stm32g0xx_ll_adc.h ****                                            asynchronous (refer to function @ref LL_ADC_SetClock() )
 566:Drivers/STM32G0xx_HAL_Driver/Inc/stm32g0xx_ll_adc.h **** #define LL_ADC_CLOCK_ASYNC_DIV128          (ADC_CCR_PRESC_3 | ADC_CCR_PRESC_1) /*!< ADC asynchronou
 567:Drivers/STM32G0xx_HAL_Driver/Inc/stm32g0xx_ll_adc.h ****                                            prescaler division by 128. Setting common to ADC instanc
 568:Drivers/STM32G0xx_HAL_Driver/Inc/stm32g0xx_ll_adc.h ****                                            group, applied ADC instance wise to each instance clock 
 569:Drivers/STM32G0xx_HAL_Driver/Inc/stm32g0xx_ll_adc.h ****                                            asynchronous (refer to function @ref LL_ADC_SetClock() )
 570:Drivers/STM32G0xx_HAL_Driver/Inc/stm32g0xx_ll_adc.h **** #define LL_ADC_CLOCK_ASYNC_DIV256          (ADC_CCR_PRESC_3 | ADC_CCR_PRESC_1 \
 571:Drivers/STM32G0xx_HAL_Driver/Inc/stm32g0xx_ll_adc.h ****                                             | ADC_CCR_PRESC_0)                  /*!< ADC asynchrono
ARM GAS  C:\Users\tugru\AppData\Local\Temp\ccFmcKQs.s 			page 29


 572:Drivers/STM32G0xx_HAL_Driver/Inc/stm32g0xx_ll_adc.h ****                                            prescaler division by 256. Setting common to ADC instanc
 573:Drivers/STM32G0xx_HAL_Driver/Inc/stm32g0xx_ll_adc.h ****                                            group, applied ADC instance wise to each instance clock 
 574:Drivers/STM32G0xx_HAL_Driver/Inc/stm32g0xx_ll_adc.h ****                                            asynchronous (refer to function @ref LL_ADC_SetClock() )
 575:Drivers/STM32G0xx_HAL_Driver/Inc/stm32g0xx_ll_adc.h **** /**
 576:Drivers/STM32G0xx_HAL_Driver/Inc/stm32g0xx_ll_adc.h ****   * @}
 577:Drivers/STM32G0xx_HAL_Driver/Inc/stm32g0xx_ll_adc.h ****   */
 578:Drivers/STM32G0xx_HAL_Driver/Inc/stm32g0xx_ll_adc.h **** 
 579:Drivers/STM32G0xx_HAL_Driver/Inc/stm32g0xx_ll_adc.h **** /** @defgroup ADC_LL_EC_COMMON_CLOCK_FREQ_MODE  ADC common - Clock frequency mode
 580:Drivers/STM32G0xx_HAL_Driver/Inc/stm32g0xx_ll_adc.h ****   * @{
 581:Drivers/STM32G0xx_HAL_Driver/Inc/stm32g0xx_ll_adc.h ****   */
 582:Drivers/STM32G0xx_HAL_Driver/Inc/stm32g0xx_ll_adc.h **** #define LL_ADC_CLOCK_FREQ_MODE_HIGH        (0x00000000UL)     /*!< ADC clock mode to high frequency
 583:Drivers/STM32G0xx_HAL_Driver/Inc/stm32g0xx_ll_adc.h ****                                            On STM32G0, ADC clock frequency above 3.5MHz.  */
 584:Drivers/STM32G0xx_HAL_Driver/Inc/stm32g0xx_ll_adc.h **** #define LL_ADC_CLOCK_FREQ_MODE_LOW         (ADC_CCR_LFMEN)    /*!< ADC clock mode to low frequency.
 585:Drivers/STM32G0xx_HAL_Driver/Inc/stm32g0xx_ll_adc.h ****                                            On STM32G0,ADC clock frequency below 3.5MHz. */
 586:Drivers/STM32G0xx_HAL_Driver/Inc/stm32g0xx_ll_adc.h **** /**
 587:Drivers/STM32G0xx_HAL_Driver/Inc/stm32g0xx_ll_adc.h ****   * @}
 588:Drivers/STM32G0xx_HAL_Driver/Inc/stm32g0xx_ll_adc.h ****   */
 589:Drivers/STM32G0xx_HAL_Driver/Inc/stm32g0xx_ll_adc.h **** 
 590:Drivers/STM32G0xx_HAL_Driver/Inc/stm32g0xx_ll_adc.h **** /** @defgroup ADC_LL_EC_COMMON_PATH_INTERNAL  ADC common - Measurement path to internal channels
 591:Drivers/STM32G0xx_HAL_Driver/Inc/stm32g0xx_ll_adc.h ****   * @{
 592:Drivers/STM32G0xx_HAL_Driver/Inc/stm32g0xx_ll_adc.h ****   */
 593:Drivers/STM32G0xx_HAL_Driver/Inc/stm32g0xx_ll_adc.h **** /* Note: Other measurement paths to internal channels may be available        */
 594:Drivers/STM32G0xx_HAL_Driver/Inc/stm32g0xx_ll_adc.h **** /*       (connections to other peripherals).                                  */
 595:Drivers/STM32G0xx_HAL_Driver/Inc/stm32g0xx_ll_adc.h **** /*       If they are not listed below, they do not require any specific       */
 596:Drivers/STM32G0xx_HAL_Driver/Inc/stm32g0xx_ll_adc.h **** /*       path enable. In this case, Access to measurement path is done        */
 597:Drivers/STM32G0xx_HAL_Driver/Inc/stm32g0xx_ll_adc.h **** /*       only by selecting the corresponding ADC internal channel.            */
 598:Drivers/STM32G0xx_HAL_Driver/Inc/stm32g0xx_ll_adc.h **** #define LL_ADC_PATH_INTERNAL_NONE          (0x00000000UL)       /*!< ADC measurement paths all disa
 599:Drivers/STM32G0xx_HAL_Driver/Inc/stm32g0xx_ll_adc.h **** #define LL_ADC_PATH_INTERNAL_VREFINT       (ADC_CCR_VREFEN)     /*!< ADC measurement path to intern
 600:Drivers/STM32G0xx_HAL_Driver/Inc/stm32g0xx_ll_adc.h **** #define LL_ADC_PATH_INTERNAL_TEMPSENSOR    (ADC_CCR_TSEN)       /*!< ADC measurement path to intern
 601:Drivers/STM32G0xx_HAL_Driver/Inc/stm32g0xx_ll_adc.h ****                                                                      temperature sensor */
 602:Drivers/STM32G0xx_HAL_Driver/Inc/stm32g0xx_ll_adc.h **** #define LL_ADC_PATH_INTERNAL_VBAT          (ADC_CCR_VBATEN)     /*!< ADC measurement path to intern
 603:Drivers/STM32G0xx_HAL_Driver/Inc/stm32g0xx_ll_adc.h **** /**
 604:Drivers/STM32G0xx_HAL_Driver/Inc/stm32g0xx_ll_adc.h ****   * @}
 605:Drivers/STM32G0xx_HAL_Driver/Inc/stm32g0xx_ll_adc.h ****   */
 606:Drivers/STM32G0xx_HAL_Driver/Inc/stm32g0xx_ll_adc.h **** 
 607:Drivers/STM32G0xx_HAL_Driver/Inc/stm32g0xx_ll_adc.h **** /** @defgroup ADC_LL_EC_CLOCK_SOURCE  ADC instance - Clock source
 608:Drivers/STM32G0xx_HAL_Driver/Inc/stm32g0xx_ll_adc.h ****   * @{
 609:Drivers/STM32G0xx_HAL_Driver/Inc/stm32g0xx_ll_adc.h ****   */
 610:Drivers/STM32G0xx_HAL_Driver/Inc/stm32g0xx_ll_adc.h **** #define LL_ADC_CLOCK_SYNC_PCLK_DIV4        (ADC_CFGR2_CKMODE_1) /*!< ADC synchronous clock derived 
 611:Drivers/STM32G0xx_HAL_Driver/Inc/stm32g0xx_ll_adc.h ****                                            divided by 4 */
 612:Drivers/STM32G0xx_HAL_Driver/Inc/stm32g0xx_ll_adc.h **** #define LL_ADC_CLOCK_SYNC_PCLK_DIV2        (ADC_CFGR2_CKMODE_0) /*!< ADC synchronous clock derived 
 613:Drivers/STM32G0xx_HAL_Driver/Inc/stm32g0xx_ll_adc.h ****                                            divided by 2 */
 614:Drivers/STM32G0xx_HAL_Driver/Inc/stm32g0xx_ll_adc.h **** #define LL_ADC_CLOCK_SYNC_PCLK_DIV1        (ADC_CFGR2_CKMODE_1 \
 615:Drivers/STM32G0xx_HAL_Driver/Inc/stm32g0xx_ll_adc.h ****                                             | ADC_CFGR2_CKMODE_0) /*!< ADC synchronous clock derive
 616:Drivers/STM32G0xx_HAL_Driver/Inc/stm32g0xx_ll_adc.h ****                                            not divided */
 617:Drivers/STM32G0xx_HAL_Driver/Inc/stm32g0xx_ll_adc.h **** #define LL_ADC_CLOCK_ASYNC                 (0x00000000UL)       /*!< ADC asynchronous clock. Asynch
 618:Drivers/STM32G0xx_HAL_Driver/Inc/stm32g0xx_ll_adc.h ****                                            prescaler can be configured using function @ref LL_ADC_S
 619:Drivers/STM32G0xx_HAL_Driver/Inc/stm32g0xx_ll_adc.h **** /**
 620:Drivers/STM32G0xx_HAL_Driver/Inc/stm32g0xx_ll_adc.h ****   * @}
 621:Drivers/STM32G0xx_HAL_Driver/Inc/stm32g0xx_ll_adc.h ****   */
 622:Drivers/STM32G0xx_HAL_Driver/Inc/stm32g0xx_ll_adc.h **** 
 623:Drivers/STM32G0xx_HAL_Driver/Inc/stm32g0xx_ll_adc.h **** /** @defgroup ADC_LL_EC_RESOLUTION  ADC instance - Resolution
 624:Drivers/STM32G0xx_HAL_Driver/Inc/stm32g0xx_ll_adc.h ****   * @{
 625:Drivers/STM32G0xx_HAL_Driver/Inc/stm32g0xx_ll_adc.h ****   */
 626:Drivers/STM32G0xx_HAL_Driver/Inc/stm32g0xx_ll_adc.h **** #define LL_ADC_RESOLUTION_12B              (0x00000000UL)                      /*!< ADC resolution 
 627:Drivers/STM32G0xx_HAL_Driver/Inc/stm32g0xx_ll_adc.h **** #define LL_ADC_RESOLUTION_10B              (                  ADC_CFGR1_RES_0) /*!< ADC resolution 
 628:Drivers/STM32G0xx_HAL_Driver/Inc/stm32g0xx_ll_adc.h **** #define LL_ADC_RESOLUTION_8B               (ADC_CFGR1_RES_1                  ) /*!< ADC resolution 
ARM GAS  C:\Users\tugru\AppData\Local\Temp\ccFmcKQs.s 			page 30


 629:Drivers/STM32G0xx_HAL_Driver/Inc/stm32g0xx_ll_adc.h **** #define LL_ADC_RESOLUTION_6B               (ADC_CFGR1_RES_1 | ADC_CFGR1_RES_0) /*!< ADC resolution 
 630:Drivers/STM32G0xx_HAL_Driver/Inc/stm32g0xx_ll_adc.h **** /**
 631:Drivers/STM32G0xx_HAL_Driver/Inc/stm32g0xx_ll_adc.h ****   * @}
 632:Drivers/STM32G0xx_HAL_Driver/Inc/stm32g0xx_ll_adc.h ****   */
 633:Drivers/STM32G0xx_HAL_Driver/Inc/stm32g0xx_ll_adc.h **** 
 634:Drivers/STM32G0xx_HAL_Driver/Inc/stm32g0xx_ll_adc.h **** /** @defgroup ADC_LL_EC_DATA_ALIGN  ADC instance - Data alignment
 635:Drivers/STM32G0xx_HAL_Driver/Inc/stm32g0xx_ll_adc.h ****   * @{
 636:Drivers/STM32G0xx_HAL_Driver/Inc/stm32g0xx_ll_adc.h ****   */
 637:Drivers/STM32G0xx_HAL_Driver/Inc/stm32g0xx_ll_adc.h **** #define LL_ADC_DATA_ALIGN_RIGHT            (0x00000000UL)     /*!< ADC conversion data alignment: r
 638:Drivers/STM32G0xx_HAL_Driver/Inc/stm32g0xx_ll_adc.h ****                                            (alignment on data register LSB bit 0)*/
 639:Drivers/STM32G0xx_HAL_Driver/Inc/stm32g0xx_ll_adc.h **** #define LL_ADC_DATA_ALIGN_LEFT             (ADC_CFGR1_ALIGN)  /*!< ADC conversion data alignment: l
 640:Drivers/STM32G0xx_HAL_Driver/Inc/stm32g0xx_ll_adc.h ****                                            (alignment on data register MSB bit 15)*/
 641:Drivers/STM32G0xx_HAL_Driver/Inc/stm32g0xx_ll_adc.h **** /**
 642:Drivers/STM32G0xx_HAL_Driver/Inc/stm32g0xx_ll_adc.h ****   * @}
 643:Drivers/STM32G0xx_HAL_Driver/Inc/stm32g0xx_ll_adc.h ****   */
 644:Drivers/STM32G0xx_HAL_Driver/Inc/stm32g0xx_ll_adc.h **** 
 645:Drivers/STM32G0xx_HAL_Driver/Inc/stm32g0xx_ll_adc.h **** /** @defgroup ADC_LL_EC_LP_MODE  ADC instance - Low power mode
 646:Drivers/STM32G0xx_HAL_Driver/Inc/stm32g0xx_ll_adc.h ****   * @{
 647:Drivers/STM32G0xx_HAL_Driver/Inc/stm32g0xx_ll_adc.h ****   */
 648:Drivers/STM32G0xx_HAL_Driver/Inc/stm32g0xx_ll_adc.h **** #define LL_ADC_LP_MODE_NONE                (0x00000000UL)     /*!< No ADC low power mode activated 
 649:Drivers/STM32G0xx_HAL_Driver/Inc/stm32g0xx_ll_adc.h **** #define LL_ADC_LP_AUTOWAIT                 (ADC_CFGR1_WAIT)   /*!< ADC low power mode auto delay: D
 650:Drivers/STM32G0xx_HAL_Driver/Inc/stm32g0xx_ll_adc.h ****                                            mode, ADC conversions are performed only when necessary
 651:Drivers/STM32G0xx_HAL_Driver/Inc/stm32g0xx_ll_adc.h ****                                            (when previous ADC conversion data is read).
 652:Drivers/STM32G0xx_HAL_Driver/Inc/stm32g0xx_ll_adc.h ****                                            See description with function @ref LL_ADC_SetLowPowerMod
 653:Drivers/STM32G0xx_HAL_Driver/Inc/stm32g0xx_ll_adc.h **** #define LL_ADC_LP_AUTOPOWEROFF             (ADC_CFGR1_AUTOFF) /*!< ADC low power mode auto power-of
 654:Drivers/STM32G0xx_HAL_Driver/Inc/stm32g0xx_ll_adc.h ****                                            automatically powers-off after a ADC conversion and auto
 655:Drivers/STM32G0xx_HAL_Driver/Inc/stm32g0xx_ll_adc.h ****                                            when a new ADC conversion is triggered (with startup tim
 656:Drivers/STM32G0xx_HAL_Driver/Inc/stm32g0xx_ll_adc.h ****                                            and start of sampling). See description with function
 657:Drivers/STM32G0xx_HAL_Driver/Inc/stm32g0xx_ll_adc.h ****                                            @ref LL_ADC_SetLowPowerMode(). */
 658:Drivers/STM32G0xx_HAL_Driver/Inc/stm32g0xx_ll_adc.h **** #define LL_ADC_LP_AUTOWAIT_AUTOPOWEROFF    (ADC_CFGR1_WAIT | ADC_CFGR1_AUTOFF) /*!< ADC low power m
 659:Drivers/STM32G0xx_HAL_Driver/Inc/stm32g0xx_ll_adc.h **** and auto power-off combined. See description with function @ref LL_ADC_SetLowPowerMode(). */
 660:Drivers/STM32G0xx_HAL_Driver/Inc/stm32g0xx_ll_adc.h **** /**
 661:Drivers/STM32G0xx_HAL_Driver/Inc/stm32g0xx_ll_adc.h ****   * @}
 662:Drivers/STM32G0xx_HAL_Driver/Inc/stm32g0xx_ll_adc.h ****   */
 663:Drivers/STM32G0xx_HAL_Driver/Inc/stm32g0xx_ll_adc.h **** 
 664:Drivers/STM32G0xx_HAL_Driver/Inc/stm32g0xx_ll_adc.h **** /** @defgroup ADC_LL_EC_REG_TRIGGER_FREQ  ADC group regular - Trigger frequency mode
 665:Drivers/STM32G0xx_HAL_Driver/Inc/stm32g0xx_ll_adc.h ****   * @{
 666:Drivers/STM32G0xx_HAL_Driver/Inc/stm32g0xx_ll_adc.h ****   */
 667:Drivers/STM32G0xx_HAL_Driver/Inc/stm32g0xx_ll_adc.h **** #define LL_ADC_TRIGGER_FREQ_HIGH           (0x00000000UL)     /*!< ADC trigger frequency mode set t
 668:Drivers/STM32G0xx_HAL_Driver/Inc/stm32g0xx_ll_adc.h ****                                            Note: ADC trigger frequency mode must be set to low freq
 669:Drivers/STM32G0xx_HAL_Driver/Inc/stm32g0xx_ll_adc.h ****                                            is exceeded before ADC conversion start trigger event (b
 670:Drivers/STM32G0xx_HAL_Driver/Inc/stm32g0xx_ll_adc.h ****                                            and ADC conversion start trigger event or between two AD
 671:Drivers/STM32G0xx_HAL_Driver/Inc/stm32g0xx_ll_adc.h ****                                            trigger event).
 672:Drivers/STM32G0xx_HAL_Driver/Inc/stm32g0xx_ll_adc.h ****                                            Duration value: Refer to device datasheet, parameter "tI
 673:Drivers/STM32G0xx_HAL_Driver/Inc/stm32g0xx_ll_adc.h **** #define LL_ADC_TRIGGER_FREQ_LOW            (ADC_CFGR2_LFTRIG) /*!< ADC trigger frequency mode set t
 674:Drivers/STM32G0xx_HAL_Driver/Inc/stm32g0xx_ll_adc.h ****                                            Note: ADC trigger frequency mode must be set to low freq
 675:Drivers/STM32G0xx_HAL_Driver/Inc/stm32g0xx_ll_adc.h ****                                            is exceeded before ADC conversion start trigger event (b
 676:Drivers/STM32G0xx_HAL_Driver/Inc/stm32g0xx_ll_adc.h ****                                            and ADC conversion start trigger event or between two AD
 677:Drivers/STM32G0xx_HAL_Driver/Inc/stm32g0xx_ll_adc.h ****                                            trigger event).
 678:Drivers/STM32G0xx_HAL_Driver/Inc/stm32g0xx_ll_adc.h ****                                            Duration value: Refer to device datasheet, parameter "tI
 679:Drivers/STM32G0xx_HAL_Driver/Inc/stm32g0xx_ll_adc.h **** /**
 680:Drivers/STM32G0xx_HAL_Driver/Inc/stm32g0xx_ll_adc.h ****   * @}
 681:Drivers/STM32G0xx_HAL_Driver/Inc/stm32g0xx_ll_adc.h ****   */
 682:Drivers/STM32G0xx_HAL_Driver/Inc/stm32g0xx_ll_adc.h **** 
 683:Drivers/STM32G0xx_HAL_Driver/Inc/stm32g0xx_ll_adc.h **** /** @defgroup ADC_LL_EC_SAMPLINGTIME_COMMON  ADC instance - Sampling time common to a group of chan
 684:Drivers/STM32G0xx_HAL_Driver/Inc/stm32g0xx_ll_adc.h ****   * @{
 685:Drivers/STM32G0xx_HAL_Driver/Inc/stm32g0xx_ll_adc.h ****   */
ARM GAS  C:\Users\tugru\AppData\Local\Temp\ccFmcKQs.s 			page 31


 686:Drivers/STM32G0xx_HAL_Driver/Inc/stm32g0xx_ll_adc.h **** #define LL_ADC_SAMPLINGTIME_COMMON_1       (ADC_SMPR_SMP1_BITOFFSET_POS) /*!< Set sampling time com
 687:Drivers/STM32G0xx_HAL_Driver/Inc/stm32g0xx_ll_adc.h ****                                            of channels: sampling time nb 1 */
 688:Drivers/STM32G0xx_HAL_Driver/Inc/stm32g0xx_ll_adc.h **** #define LL_ADC_SAMPLINGTIME_COMMON_2       (ADC_SMPR_SMP2_BITOFFSET_POS \
 689:Drivers/STM32G0xx_HAL_Driver/Inc/stm32g0xx_ll_adc.h ****                                             | ADC_SAMPLING_TIME_CH_MASK)  /*!< Set sampling time co
 690:Drivers/STM32G0xx_HAL_Driver/Inc/stm32g0xx_ll_adc.h ****                                            of channels: sampling time nb 2 */
 691:Drivers/STM32G0xx_HAL_Driver/Inc/stm32g0xx_ll_adc.h **** /**
 692:Drivers/STM32G0xx_HAL_Driver/Inc/stm32g0xx_ll_adc.h ****   * @}
 693:Drivers/STM32G0xx_HAL_Driver/Inc/stm32g0xx_ll_adc.h ****   */
 694:Drivers/STM32G0xx_HAL_Driver/Inc/stm32g0xx_ll_adc.h **** 
 695:Drivers/STM32G0xx_HAL_Driver/Inc/stm32g0xx_ll_adc.h **** /** @defgroup ADC_LL_EC_GROUPS  ADC instance - Groups
 696:Drivers/STM32G0xx_HAL_Driver/Inc/stm32g0xx_ll_adc.h ****   * @{
 697:Drivers/STM32G0xx_HAL_Driver/Inc/stm32g0xx_ll_adc.h ****   */
 698:Drivers/STM32G0xx_HAL_Driver/Inc/stm32g0xx_ll_adc.h **** #define LL_ADC_GROUP_REGULAR               (0x00000001UL)     /*!< ADC group regular (available on 
 699:Drivers/STM32G0xx_HAL_Driver/Inc/stm32g0xx_ll_adc.h **** /**
 700:Drivers/STM32G0xx_HAL_Driver/Inc/stm32g0xx_ll_adc.h ****   * @}
 701:Drivers/STM32G0xx_HAL_Driver/Inc/stm32g0xx_ll_adc.h ****   */
 702:Drivers/STM32G0xx_HAL_Driver/Inc/stm32g0xx_ll_adc.h **** 
 703:Drivers/STM32G0xx_HAL_Driver/Inc/stm32g0xx_ll_adc.h **** /** @defgroup ADC_LL_EC_CHANNEL  ADC instance - Channel number
 704:Drivers/STM32G0xx_HAL_Driver/Inc/stm32g0xx_ll_adc.h ****   * @{
 705:Drivers/STM32G0xx_HAL_Driver/Inc/stm32g0xx_ll_adc.h ****   */
 706:Drivers/STM32G0xx_HAL_Driver/Inc/stm32g0xx_ll_adc.h **** #define LL_ADC_CHANNEL_0                   (ADC_CHANNEL_0_NUMBER \
 707:Drivers/STM32G0xx_HAL_Driver/Inc/stm32g0xx_ll_adc.h ****                                             | ADC_CHANNEL_0_BITFIELD ) /*!< ADC channel ADCx_IN0  *
 708:Drivers/STM32G0xx_HAL_Driver/Inc/stm32g0xx_ll_adc.h **** #define LL_ADC_CHANNEL_1                   (ADC_CHANNEL_1_NUMBER \
 709:Drivers/STM32G0xx_HAL_Driver/Inc/stm32g0xx_ll_adc.h ****                                             | ADC_CHANNEL_1_BITFIELD ) /*!< ADC channel ADCx_IN1  *
 710:Drivers/STM32G0xx_HAL_Driver/Inc/stm32g0xx_ll_adc.h **** #define LL_ADC_CHANNEL_2                   (ADC_CHANNEL_2_NUMBER \
 711:Drivers/STM32G0xx_HAL_Driver/Inc/stm32g0xx_ll_adc.h ****                                             | ADC_CHANNEL_2_BITFIELD ) /*!< ADC channel ADCx_IN2  *
 712:Drivers/STM32G0xx_HAL_Driver/Inc/stm32g0xx_ll_adc.h **** #define LL_ADC_CHANNEL_3                   (ADC_CHANNEL_3_NUMBER \
 713:Drivers/STM32G0xx_HAL_Driver/Inc/stm32g0xx_ll_adc.h ****                                             | ADC_CHANNEL_3_BITFIELD ) /*!< ADC channel ADCx_IN3  *
 714:Drivers/STM32G0xx_HAL_Driver/Inc/stm32g0xx_ll_adc.h **** #define LL_ADC_CHANNEL_4                   (ADC_CHANNEL_4_NUMBER \
 715:Drivers/STM32G0xx_HAL_Driver/Inc/stm32g0xx_ll_adc.h ****                                             | ADC_CHANNEL_4_BITFIELD ) /*!< ADC channel ADCx_IN4  *
 716:Drivers/STM32G0xx_HAL_Driver/Inc/stm32g0xx_ll_adc.h **** #define LL_ADC_CHANNEL_5                   (ADC_CHANNEL_5_NUMBER \
 717:Drivers/STM32G0xx_HAL_Driver/Inc/stm32g0xx_ll_adc.h ****                                             | ADC_CHANNEL_5_BITFIELD ) /*!< ADC channel ADCx_IN5  *
 718:Drivers/STM32G0xx_HAL_Driver/Inc/stm32g0xx_ll_adc.h **** #define LL_ADC_CHANNEL_6                   (ADC_CHANNEL_6_NUMBER \
 719:Drivers/STM32G0xx_HAL_Driver/Inc/stm32g0xx_ll_adc.h ****                                             | ADC_CHANNEL_6_BITFIELD ) /*!< ADC channel ADCx_IN6  *
 720:Drivers/STM32G0xx_HAL_Driver/Inc/stm32g0xx_ll_adc.h **** #define LL_ADC_CHANNEL_7                   (ADC_CHANNEL_7_NUMBER \
 721:Drivers/STM32G0xx_HAL_Driver/Inc/stm32g0xx_ll_adc.h ****                                             | ADC_CHANNEL_7_BITFIELD ) /*!< ADC channel ADCx_IN7  *
 722:Drivers/STM32G0xx_HAL_Driver/Inc/stm32g0xx_ll_adc.h **** #define LL_ADC_CHANNEL_8                   (ADC_CHANNEL_8_NUMBER \
 723:Drivers/STM32G0xx_HAL_Driver/Inc/stm32g0xx_ll_adc.h ****                                             | ADC_CHANNEL_8_BITFIELD ) /*!< ADC channel ADCx_IN8  *
 724:Drivers/STM32G0xx_HAL_Driver/Inc/stm32g0xx_ll_adc.h **** #define LL_ADC_CHANNEL_9                   (ADC_CHANNEL_9_NUMBER \
 725:Drivers/STM32G0xx_HAL_Driver/Inc/stm32g0xx_ll_adc.h ****                                             | ADC_CHANNEL_9_BITFIELD ) /*!< ADC channel ADCx_IN9  *
 726:Drivers/STM32G0xx_HAL_Driver/Inc/stm32g0xx_ll_adc.h **** #define LL_ADC_CHANNEL_10                  (ADC_CHANNEL_10_NUMBER \
 727:Drivers/STM32G0xx_HAL_Driver/Inc/stm32g0xx_ll_adc.h ****                                             | ADC_CHANNEL_10_BITFIELD) /*!< ADC channel ADCx_IN10 *
 728:Drivers/STM32G0xx_HAL_Driver/Inc/stm32g0xx_ll_adc.h **** #define LL_ADC_CHANNEL_11                  (ADC_CHANNEL_11_NUMBER \
 729:Drivers/STM32G0xx_HAL_Driver/Inc/stm32g0xx_ll_adc.h ****                                             | ADC_CHANNEL_11_BITFIELD) /*!< ADC channel ADCx_IN11 *
 730:Drivers/STM32G0xx_HAL_Driver/Inc/stm32g0xx_ll_adc.h **** #define LL_ADC_CHANNEL_12                  (ADC_CHANNEL_12_NUMBER \
 731:Drivers/STM32G0xx_HAL_Driver/Inc/stm32g0xx_ll_adc.h ****                                             | ADC_CHANNEL_12_BITFIELD) /*!< ADC channel ADCx_IN12 *
 732:Drivers/STM32G0xx_HAL_Driver/Inc/stm32g0xx_ll_adc.h **** #define LL_ADC_CHANNEL_13                  (ADC_CHANNEL_13_NUMBER \
 733:Drivers/STM32G0xx_HAL_Driver/Inc/stm32g0xx_ll_adc.h ****                                             | ADC_CHANNEL_13_BITFIELD) /*!< ADC channel ADCx_IN13 *
 734:Drivers/STM32G0xx_HAL_Driver/Inc/stm32g0xx_ll_adc.h **** #define LL_ADC_CHANNEL_14                  (ADC_CHANNEL_14_NUMBER \
 735:Drivers/STM32G0xx_HAL_Driver/Inc/stm32g0xx_ll_adc.h ****                                             | ADC_CHANNEL_14_BITFIELD) /*!< ADC channel ADCx_IN14 *
 736:Drivers/STM32G0xx_HAL_Driver/Inc/stm32g0xx_ll_adc.h **** #define LL_ADC_CHANNEL_15                  (ADC_CHANNEL_15_NUMBER \
 737:Drivers/STM32G0xx_HAL_Driver/Inc/stm32g0xx_ll_adc.h ****                                             | ADC_CHANNEL_15_BITFIELD) /*!< ADC channel ADCx_IN15 *
 738:Drivers/STM32G0xx_HAL_Driver/Inc/stm32g0xx_ll_adc.h **** #define LL_ADC_CHANNEL_16                  (ADC_CHANNEL_16_NUMBER \
 739:Drivers/STM32G0xx_HAL_Driver/Inc/stm32g0xx_ll_adc.h ****                                             | ADC_CHANNEL_16_BITFIELD) /*!< ADC channel ADCx_IN16 *
 740:Drivers/STM32G0xx_HAL_Driver/Inc/stm32g0xx_ll_adc.h **** #define LL_ADC_CHANNEL_17                  (ADC_CHANNEL_17_NUMBER \
 741:Drivers/STM32G0xx_HAL_Driver/Inc/stm32g0xx_ll_adc.h ****                                             | ADC_CHANNEL_17_BITFIELD) /*!< ADC channel ADCx_IN17 *
 742:Drivers/STM32G0xx_HAL_Driver/Inc/stm32g0xx_ll_adc.h **** #define LL_ADC_CHANNEL_18                  (ADC_CHANNEL_18_NUMBER \
ARM GAS  C:\Users\tugru\AppData\Local\Temp\ccFmcKQs.s 			page 32


 743:Drivers/STM32G0xx_HAL_Driver/Inc/stm32g0xx_ll_adc.h ****                                             | ADC_CHANNEL_18_BITFIELD) /*!< ADC channel ADCx_IN18 *
 744:Drivers/STM32G0xx_HAL_Driver/Inc/stm32g0xx_ll_adc.h **** #define LL_ADC_CHANNEL_VREFINT             (LL_ADC_CHANNEL_13 | ADC_CHANNEL_ID_INTERNAL_CH)  /*!< A
 745:Drivers/STM32G0xx_HAL_Driver/Inc/stm32g0xx_ll_adc.h ****                                            connected to VrefInt: Internal voltage reference. */
 746:Drivers/STM32G0xx_HAL_Driver/Inc/stm32g0xx_ll_adc.h **** #define LL_ADC_CHANNEL_TEMPSENSOR          (LL_ADC_CHANNEL_12 | ADC_CHANNEL_ID_INTERNAL_CH)  /*!< A
 747:Drivers/STM32G0xx_HAL_Driver/Inc/stm32g0xx_ll_adc.h ****                                            connected to Temperature sensor. */
 748:Drivers/STM32G0xx_HAL_Driver/Inc/stm32g0xx_ll_adc.h **** #define LL_ADC_CHANNEL_VBAT                (LL_ADC_CHANNEL_14 | ADC_CHANNEL_ID_INTERNAL_CH)  /*!< A
 749:Drivers/STM32G0xx_HAL_Driver/Inc/stm32g0xx_ll_adc.h ****                                            connected to Vbat/4: Vbat voltage through a divider ladd
 750:Drivers/STM32G0xx_HAL_Driver/Inc/stm32g0xx_ll_adc.h ****                                            to have channel voltage always below Vdda. */
 751:Drivers/STM32G0xx_HAL_Driver/Inc/stm32g0xx_ll_adc.h **** /**
 752:Drivers/STM32G0xx_HAL_Driver/Inc/stm32g0xx_ll_adc.h ****   * @}
 753:Drivers/STM32G0xx_HAL_Driver/Inc/stm32g0xx_ll_adc.h ****   */
 754:Drivers/STM32G0xx_HAL_Driver/Inc/stm32g0xx_ll_adc.h **** 
 755:Drivers/STM32G0xx_HAL_Driver/Inc/stm32g0xx_ll_adc.h **** /** @defgroup ADC_LL_EC_REG_TRIGGER_SOURCE  ADC group regular - Trigger source
 756:Drivers/STM32G0xx_HAL_Driver/Inc/stm32g0xx_ll_adc.h ****   * @{
 757:Drivers/STM32G0xx_HAL_Driver/Inc/stm32g0xx_ll_adc.h ****   */
 758:Drivers/STM32G0xx_HAL_Driver/Inc/stm32g0xx_ll_adc.h **** #define LL_ADC_REG_TRIG_SOFTWARE           (0x00000000UL)                                        /*
 759:Drivers/STM32G0xx_HAL_Driver/Inc/stm32g0xx_ll_adc.h ****                                            conversion trigger internal: SW start. */
 760:Drivers/STM32G0xx_HAL_Driver/Inc/stm32g0xx_ll_adc.h **** #define LL_ADC_REG_TRIG_EXT_TIM1_TRGO2     (ADC_REG_TRIG_EXT_EDGE_DEFAULT)                       /*
 761:Drivers/STM32G0xx_HAL_Driver/Inc/stm32g0xx_ll_adc.h ****                                            conversion trigger from external peripheral: TIM1 TRGO.
 762:Drivers/STM32G0xx_HAL_Driver/Inc/stm32g0xx_ll_adc.h ****                                            Trigger edge set to rising edge (default setting). */
 763:Drivers/STM32G0xx_HAL_Driver/Inc/stm32g0xx_ll_adc.h **** #define LL_ADC_REG_TRIG_EXT_TIM1_CH4       (ADC_CFGR1_EXTSEL_0 | ADC_REG_TRIG_EXT_EDGE_DEFAULT)  /*
 764:Drivers/STM32G0xx_HAL_Driver/Inc/stm32g0xx_ll_adc.h ****                                            conversion trigger from external peripheral: TIM1 channe
 765:Drivers/STM32G0xx_HAL_Driver/Inc/stm32g0xx_ll_adc.h ****                                            (capture compare: input capture or output capture).
 766:Drivers/STM32G0xx_HAL_Driver/Inc/stm32g0xx_ll_adc.h ****                                            Trigger edge set to rising edge (default setting). */
 767:Drivers/STM32G0xx_HAL_Driver/Inc/stm32g0xx_ll_adc.h **** #if defined(TIM2)
 768:Drivers/STM32G0xx_HAL_Driver/Inc/stm32g0xx_ll_adc.h **** #define LL_ADC_REG_TRIG_EXT_TIM2_TRGO      (ADC_CFGR1_EXTSEL_1\
 769:Drivers/STM32G0xx_HAL_Driver/Inc/stm32g0xx_ll_adc.h ****                                             | ADC_REG_TRIG_EXT_EDGE_DEFAULT)  /*!< ADC group regula
 770:Drivers/STM32G0xx_HAL_Driver/Inc/stm32g0xx_ll_adc.h ****                                            conversion trigger from external peripheral: TIM2 TRGO.
 771:Drivers/STM32G0xx_HAL_Driver/Inc/stm32g0xx_ll_adc.h ****                                            Trigger edge set to rising edge (default setting). */
 772:Drivers/STM32G0xx_HAL_Driver/Inc/stm32g0xx_ll_adc.h **** #endif /* TIM2 */
 773:Drivers/STM32G0xx_HAL_Driver/Inc/stm32g0xx_ll_adc.h **** #define LL_ADC_REG_TRIG_EXT_TIM3_TRGO      (ADC_CFGR1_EXTSEL_1 | ADC_CFGR1_EXTSEL_0 | \
 774:Drivers/STM32G0xx_HAL_Driver/Inc/stm32g0xx_ll_adc.h ****                                             ADC_REG_TRIG_EXT_EDGE_DEFAULT)                       /*
 775:Drivers/STM32G0xx_HAL_Driver/Inc/stm32g0xx_ll_adc.h ****                                            conversion trigger from external peripheral: TIM3 TRGO.
 776:Drivers/STM32G0xx_HAL_Driver/Inc/stm32g0xx_ll_adc.h ****                                            Trigger edge set to rising edge (default setting). */
 777:Drivers/STM32G0xx_HAL_Driver/Inc/stm32g0xx_ll_adc.h **** #if defined(TIM4)
 778:Drivers/STM32G0xx_HAL_Driver/Inc/stm32g0xx_ll_adc.h **** #define LL_ADC_REG_TRIG_EXT_TIM4_TRGO      (ADC_CFGR1_EXTSEL_2 | ADC_CFGR1_EXTSEL_1 | \
 779:Drivers/STM32G0xx_HAL_Driver/Inc/stm32g0xx_ll_adc.h ****                                             ADC_REG_TRIG_EXT_EDGE_DEFAULT)                       /*
 780:Drivers/STM32G0xx_HAL_Driver/Inc/stm32g0xx_ll_adc.h ****                                            conversion trigger from external peripheral: TIM4 TRGO.
 781:Drivers/STM32G0xx_HAL_Driver/Inc/stm32g0xx_ll_adc.h ****                                            Trigger edge set to rising edge (default setting). */
 782:Drivers/STM32G0xx_HAL_Driver/Inc/stm32g0xx_ll_adc.h **** #endif /* TIM4 */
 783:Drivers/STM32G0xx_HAL_Driver/Inc/stm32g0xx_ll_adc.h **** #if defined(TIM6)
 784:Drivers/STM32G0xx_HAL_Driver/Inc/stm32g0xx_ll_adc.h **** #define LL_ADC_REG_TRIG_EXT_TIM6_TRGO      (ADC_CFGR1_EXTSEL_2 | ADC_CFGR1_EXTSEL_0 | \
 785:Drivers/STM32G0xx_HAL_Driver/Inc/stm32g0xx_ll_adc.h ****                                             ADC_REG_TRIG_EXT_EDGE_DEFAULT)                       /*
 786:Drivers/STM32G0xx_HAL_Driver/Inc/stm32g0xx_ll_adc.h ****                                            conversion trigger from external peripheral: TIM6 TRGO.
 787:Drivers/STM32G0xx_HAL_Driver/Inc/stm32g0xx_ll_adc.h ****                                            Trigger edge set to rising edge (default setting). */
 788:Drivers/STM32G0xx_HAL_Driver/Inc/stm32g0xx_ll_adc.h **** #endif /* TIM6 */
 789:Drivers/STM32G0xx_HAL_Driver/Inc/stm32g0xx_ll_adc.h **** #if defined(TIM15)
 790:Drivers/STM32G0xx_HAL_Driver/Inc/stm32g0xx_ll_adc.h **** #define LL_ADC_REG_TRIG_EXT_TIM15_TRGO     (ADC_CFGR1_EXTSEL_2 | ADC_REG_TRIG_EXT_EDGE_DEFAULT)  /*
 791:Drivers/STM32G0xx_HAL_Driver/Inc/stm32g0xx_ll_adc.h ****                                            conversion trigger from external peripheral: TIM15 TRGO.
 792:Drivers/STM32G0xx_HAL_Driver/Inc/stm32g0xx_ll_adc.h ****                                            Trigger edge set to rising edge (default setting). */
 793:Drivers/STM32G0xx_HAL_Driver/Inc/stm32g0xx_ll_adc.h **** #endif /* TIM15 */
 794:Drivers/STM32G0xx_HAL_Driver/Inc/stm32g0xx_ll_adc.h **** #define LL_ADC_REG_TRIG_EXT_EXTI_LINE11    (ADC_CFGR1_EXTSEL_2 | ADC_CFGR1_EXTSEL_1 | \
 795:Drivers/STM32G0xx_HAL_Driver/Inc/stm32g0xx_ll_adc.h ****                                             ADC_CFGR1_EXTSEL_0 | ADC_REG_TRIG_EXT_EDGE_DEFAULT)  /*
 796:Drivers/STM32G0xx_HAL_Driver/Inc/stm32g0xx_ll_adc.h ****                                            conversion trigger from external peripheral: external in
 797:Drivers/STM32G0xx_HAL_Driver/Inc/stm32g0xx_ll_adc.h ****                                            Trigger edge set to rising edge (default setting). */
 798:Drivers/STM32G0xx_HAL_Driver/Inc/stm32g0xx_ll_adc.h **** /**
 799:Drivers/STM32G0xx_HAL_Driver/Inc/stm32g0xx_ll_adc.h ****   * @}
ARM GAS  C:\Users\tugru\AppData\Local\Temp\ccFmcKQs.s 			page 33


 800:Drivers/STM32G0xx_HAL_Driver/Inc/stm32g0xx_ll_adc.h ****   */
 801:Drivers/STM32G0xx_HAL_Driver/Inc/stm32g0xx_ll_adc.h **** 
 802:Drivers/STM32G0xx_HAL_Driver/Inc/stm32g0xx_ll_adc.h **** /** @defgroup ADC_LL_EC_REG_TRIGGER_EDGE  ADC group regular - Trigger edge
 803:Drivers/STM32G0xx_HAL_Driver/Inc/stm32g0xx_ll_adc.h ****   * @{
 804:Drivers/STM32G0xx_HAL_Driver/Inc/stm32g0xx_ll_adc.h ****   */
 805:Drivers/STM32G0xx_HAL_Driver/Inc/stm32g0xx_ll_adc.h **** #define LL_ADC_REG_TRIG_EXT_RISING         (ADC_CFGR1_EXTEN_0)                     /*!< ADC group r
 806:Drivers/STM32G0xx_HAL_Driver/Inc/stm32g0xx_ll_adc.h ****                                            trigger polarity set to rising edge */
 807:Drivers/STM32G0xx_HAL_Driver/Inc/stm32g0xx_ll_adc.h **** #define LL_ADC_REG_TRIG_EXT_FALLING        (ADC_CFGR1_EXTEN_1)                     /*!< ADC group r
 808:Drivers/STM32G0xx_HAL_Driver/Inc/stm32g0xx_ll_adc.h ****                                            trigger polarity set to falling edge */
 809:Drivers/STM32G0xx_HAL_Driver/Inc/stm32g0xx_ll_adc.h **** #define LL_ADC_REG_TRIG_EXT_RISINGFALLING  (ADC_CFGR1_EXTEN_1 | ADC_CFGR1_EXTEN_0) /*!< ADC group r
 810:Drivers/STM32G0xx_HAL_Driver/Inc/stm32g0xx_ll_adc.h ****                                            trigger polarity set to both rising and falling edges */
 811:Drivers/STM32G0xx_HAL_Driver/Inc/stm32g0xx_ll_adc.h **** /**
 812:Drivers/STM32G0xx_HAL_Driver/Inc/stm32g0xx_ll_adc.h ****   * @}
 813:Drivers/STM32G0xx_HAL_Driver/Inc/stm32g0xx_ll_adc.h ****   */
 814:Drivers/STM32G0xx_HAL_Driver/Inc/stm32g0xx_ll_adc.h **** 
 815:Drivers/STM32G0xx_HAL_Driver/Inc/stm32g0xx_ll_adc.h **** /** @defgroup ADC_LL_EC_REG_CONTINUOUS_MODE  ADC group regular - Continuous mode
 816:Drivers/STM32G0xx_HAL_Driver/Inc/stm32g0xx_ll_adc.h ****   * @{
 817:Drivers/STM32G0xx_HAL_Driver/Inc/stm32g0xx_ll_adc.h ****   */
 818:Drivers/STM32G0xx_HAL_Driver/Inc/stm32g0xx_ll_adc.h **** #define LL_ADC_REG_CONV_SINGLE             (0x00000000UL)     /*!< ADC conversions performed in sin
 819:Drivers/STM32G0xx_HAL_Driver/Inc/stm32g0xx_ll_adc.h ****                                            one conversion per trigger */
 820:Drivers/STM32G0xx_HAL_Driver/Inc/stm32g0xx_ll_adc.h **** #define LL_ADC_REG_CONV_CONTINUOUS         (ADC_CFGR1_CONT)   /*!< ADC conversions performed in con
 821:Drivers/STM32G0xx_HAL_Driver/Inc/stm32g0xx_ll_adc.h ****                                            after the first trigger, following conversions launched 
 822:Drivers/STM32G0xx_HAL_Driver/Inc/stm32g0xx_ll_adc.h ****                                            automatically */
 823:Drivers/STM32G0xx_HAL_Driver/Inc/stm32g0xx_ll_adc.h **** /**
 824:Drivers/STM32G0xx_HAL_Driver/Inc/stm32g0xx_ll_adc.h ****   * @}
 825:Drivers/STM32G0xx_HAL_Driver/Inc/stm32g0xx_ll_adc.h ****   */
 826:Drivers/STM32G0xx_HAL_Driver/Inc/stm32g0xx_ll_adc.h **** 
 827:Drivers/STM32G0xx_HAL_Driver/Inc/stm32g0xx_ll_adc.h **** /** @defgroup ADC_LL_EC_REG_DMA_TRANSFER  ADC group regular - DMA transfer of ADC conversion data
 828:Drivers/STM32G0xx_HAL_Driver/Inc/stm32g0xx_ll_adc.h ****   * @{
 829:Drivers/STM32G0xx_HAL_Driver/Inc/stm32g0xx_ll_adc.h ****   */
 830:Drivers/STM32G0xx_HAL_Driver/Inc/stm32g0xx_ll_adc.h **** #define LL_ADC_REG_DMA_TRANSFER_NONE       (0x00000000UL)     /*!< ADC conversions are not transfer
 831:Drivers/STM32G0xx_HAL_Driver/Inc/stm32g0xx_ll_adc.h **** #define LL_ADC_REG_DMA_TRANSFER_LIMITED    (ADC_CFGR1_DMAEN)  /*!< ADC conversion data are transfer
 832:Drivers/STM32G0xx_HAL_Driver/Inc/stm32g0xx_ll_adc.h ****                                            in limited mode (one shot mode): DMA transfer requests a
 833:Drivers/STM32G0xx_HAL_Driver/Inc/stm32g0xx_ll_adc.h ****                                            number of DMA data transfers (number of ADC conversions)
 834:Drivers/STM32G0xx_HAL_Driver/Inc/stm32g0xx_ll_adc.h ****                                            This ADC mode is intended to be used with DMA mode non-c
 835:Drivers/STM32G0xx_HAL_Driver/Inc/stm32g0xx_ll_adc.h **** #define LL_ADC_REG_DMA_TRANSFER_UNLIMITED  (ADC_CFGR1_DMACFG | ADC_CFGR1_DMAEN)  /*!< ADC conversio
 836:Drivers/STM32G0xx_HAL_Driver/Inc/stm32g0xx_ll_adc.h ****                                            transferred by DMA, in unlimited mode: DMA transfer requ
 837:Drivers/STM32G0xx_HAL_Driver/Inc/stm32g0xx_ll_adc.h ****                                            whatever number of DMA data transferred (number of ADC c
 838:Drivers/STM32G0xx_HAL_Driver/Inc/stm32g0xx_ll_adc.h ****                                            This ADC mode is intended to be used with DMA mode circu
 839:Drivers/STM32G0xx_HAL_Driver/Inc/stm32g0xx_ll_adc.h **** /**
 840:Drivers/STM32G0xx_HAL_Driver/Inc/stm32g0xx_ll_adc.h ****   * @}
 841:Drivers/STM32G0xx_HAL_Driver/Inc/stm32g0xx_ll_adc.h ****   */
 842:Drivers/STM32G0xx_HAL_Driver/Inc/stm32g0xx_ll_adc.h **** 
 843:Drivers/STM32G0xx_HAL_Driver/Inc/stm32g0xx_ll_adc.h **** /** @defgroup ADC_LL_EC_REG_OVR_DATA_BEHAVIOR  ADC group regular - Overrun behavior on conversion d
 844:Drivers/STM32G0xx_HAL_Driver/Inc/stm32g0xx_ll_adc.h ****   * @{
 845:Drivers/STM32G0xx_HAL_Driver/Inc/stm32g0xx_ll_adc.h ****   */
 846:Drivers/STM32G0xx_HAL_Driver/Inc/stm32g0xx_ll_adc.h **** #define LL_ADC_REG_OVR_DATA_PRESERVED      (0x00000000UL)     /*!< ADC group regular behavior in ca
 847:Drivers/STM32G0xx_HAL_Driver/Inc/stm32g0xx_ll_adc.h ****                                                                    data preserved */
 848:Drivers/STM32G0xx_HAL_Driver/Inc/stm32g0xx_ll_adc.h **** #define LL_ADC_REG_OVR_DATA_OVERWRITTEN    (ADC_CFGR1_OVRMOD) /*!< ADC group regular behavior in ca
 849:Drivers/STM32G0xx_HAL_Driver/Inc/stm32g0xx_ll_adc.h ****                                                                    data overwritten */
 850:Drivers/STM32G0xx_HAL_Driver/Inc/stm32g0xx_ll_adc.h **** /**
 851:Drivers/STM32G0xx_HAL_Driver/Inc/stm32g0xx_ll_adc.h ****   * @}
 852:Drivers/STM32G0xx_HAL_Driver/Inc/stm32g0xx_ll_adc.h ****   */
 853:Drivers/STM32G0xx_HAL_Driver/Inc/stm32g0xx_ll_adc.h **** 
 854:Drivers/STM32G0xx_HAL_Driver/Inc/stm32g0xx_ll_adc.h **** /** @defgroup ADC_LL_EC_REG_SEQ_MODE  ADC group regular - Sequencer configuration flexibility
 855:Drivers/STM32G0xx_HAL_Driver/Inc/stm32g0xx_ll_adc.h ****   * @{
 856:Drivers/STM32G0xx_HAL_Driver/Inc/stm32g0xx_ll_adc.h ****   */
ARM GAS  C:\Users\tugru\AppData\Local\Temp\ccFmcKQs.s 			page 34


 857:Drivers/STM32G0xx_HAL_Driver/Inc/stm32g0xx_ll_adc.h **** #define LL_ADC_REG_SEQ_FIXED               (0x00000000UL)        /*!< Sequencer configured to not f
 858:Drivers/STM32G0xx_HAL_Driver/Inc/stm32g0xx_ll_adc.h ****                                            sequencer length and each rank affectation to a channel 
 859:Drivers/STM32G0xx_HAL_Driver/Inc/stm32g0xx_ll_adc.h ****                                            by channel HW number. Refer to description of function
 860:Drivers/STM32G0xx_HAL_Driver/Inc/stm32g0xx_ll_adc.h ****                                            @ref LL_ADC_REG_SetSequencerChannels(). */
 861:Drivers/STM32G0xx_HAL_Driver/Inc/stm32g0xx_ll_adc.h **** #define LL_ADC_REG_SEQ_CONFIGURABLE        (ADC_CFGR1_CHSELRMOD) /*!< Sequencer configured to fully
 862:Drivers/STM32G0xx_HAL_Driver/Inc/stm32g0xx_ll_adc.h ****                                            sequencer length and each rank affectation to a channel 
 863:Drivers/STM32G0xx_HAL_Driver/Inc/stm32g0xx_ll_adc.h ****                                            Refer to description of function @ref LL_ADC_REG_SetSequ
 864:Drivers/STM32G0xx_HAL_Driver/Inc/stm32g0xx_ll_adc.h **** /**
 865:Drivers/STM32G0xx_HAL_Driver/Inc/stm32g0xx_ll_adc.h ****   * @}
 866:Drivers/STM32G0xx_HAL_Driver/Inc/stm32g0xx_ll_adc.h ****   */
 867:Drivers/STM32G0xx_HAL_Driver/Inc/stm32g0xx_ll_adc.h **** 
 868:Drivers/STM32G0xx_HAL_Driver/Inc/stm32g0xx_ll_adc.h **** /** @defgroup ADC_LL_EC_REG_SEQ_SCAN_LENGTH  ADC group regular - Sequencer scan length
 869:Drivers/STM32G0xx_HAL_Driver/Inc/stm32g0xx_ll_adc.h ****   * @{
 870:Drivers/STM32G0xx_HAL_Driver/Inc/stm32g0xx_ll_adc.h ****   */
 871:Drivers/STM32G0xx_HAL_Driver/Inc/stm32g0xx_ll_adc.h **** #define LL_ADC_REG_SEQ_SCAN_DISABLE        (ADC_CHSELR_SQ2)               /*!< ADC group regular se
 872:Drivers/STM32G0xx_HAL_Driver/Inc/stm32g0xx_ll_adc.h ****                                            (equivalent to sequencer of 1 rank: ADC conversion on on
 873:Drivers/STM32G0xx_HAL_Driver/Inc/stm32g0xx_ll_adc.h **** #define LL_ADC_REG_SEQ_SCAN_ENABLE_2RANKS  (ADC_CHSELR_SQ3)               /*!< ADC group regular se
 874:Drivers/STM32G0xx_HAL_Driver/Inc/stm32g0xx_ll_adc.h ****                                            with 2 ranks in the sequence */
 875:Drivers/STM32G0xx_HAL_Driver/Inc/stm32g0xx_ll_adc.h **** #define LL_ADC_REG_SEQ_SCAN_ENABLE_3RANKS  (ADC_CHSELR_SQ4)               /*!< ADC group regular se
 876:Drivers/STM32G0xx_HAL_Driver/Inc/stm32g0xx_ll_adc.h ****                                            with 3 ranks in the sequence */
 877:Drivers/STM32G0xx_HAL_Driver/Inc/stm32g0xx_ll_adc.h **** #define LL_ADC_REG_SEQ_SCAN_ENABLE_4RANKS  (ADC_CHSELR_SQ5)               /*!< ADC group regular se
 878:Drivers/STM32G0xx_HAL_Driver/Inc/stm32g0xx_ll_adc.h ****                                            with 4 ranks in the sequence */
 879:Drivers/STM32G0xx_HAL_Driver/Inc/stm32g0xx_ll_adc.h **** #define LL_ADC_REG_SEQ_SCAN_ENABLE_5RANKS  (ADC_CHSELR_SQ6)               /*!< ADC group regular se
 880:Drivers/STM32G0xx_HAL_Driver/Inc/stm32g0xx_ll_adc.h ****                                            with 5 ranks in the sequence */
 881:Drivers/STM32G0xx_HAL_Driver/Inc/stm32g0xx_ll_adc.h **** #define LL_ADC_REG_SEQ_SCAN_ENABLE_6RANKS  (ADC_CHSELR_SQ7)               /*!< ADC group regular se
 882:Drivers/STM32G0xx_HAL_Driver/Inc/stm32g0xx_ll_adc.h ****                                            with 6 ranks in the sequence */
 883:Drivers/STM32G0xx_HAL_Driver/Inc/stm32g0xx_ll_adc.h **** #define LL_ADC_REG_SEQ_SCAN_ENABLE_7RANKS  (ADC_CHSELR_SQ8)               /*!< ADC group regular se
 884:Drivers/STM32G0xx_HAL_Driver/Inc/stm32g0xx_ll_adc.h ****                                            with 7 ranks in the sequence */
 885:Drivers/STM32G0xx_HAL_Driver/Inc/stm32g0xx_ll_adc.h **** #define LL_ADC_REG_SEQ_SCAN_ENABLE_8RANKS  (0x00000000UL)                 /*!< ADC group regular se
 886:Drivers/STM32G0xx_HAL_Driver/Inc/stm32g0xx_ll_adc.h ****                                            with 8 ranks in the sequence */
 887:Drivers/STM32G0xx_HAL_Driver/Inc/stm32g0xx_ll_adc.h **** /**
 888:Drivers/STM32G0xx_HAL_Driver/Inc/stm32g0xx_ll_adc.h ****   * @}
 889:Drivers/STM32G0xx_HAL_Driver/Inc/stm32g0xx_ll_adc.h ****   */
 890:Drivers/STM32G0xx_HAL_Driver/Inc/stm32g0xx_ll_adc.h **** 
 891:Drivers/STM32G0xx_HAL_Driver/Inc/stm32g0xx_ll_adc.h **** /** @defgroup ADC_LL_EC_REG_SEQ_SCAN_DIRECTION  ADC group regular - Sequencer scan direction
 892:Drivers/STM32G0xx_HAL_Driver/Inc/stm32g0xx_ll_adc.h ****   * @{
 893:Drivers/STM32G0xx_HAL_Driver/Inc/stm32g0xx_ll_adc.h ****   */
 894:Drivers/STM32G0xx_HAL_Driver/Inc/stm32g0xx_ll_adc.h **** #define LL_ADC_REG_SEQ_SCAN_DIR_FORWARD    (0x00000000UL)      /*!< On this STM32 series, parameter
 895:Drivers/STM32G0xx_HAL_Driver/Inc/stm32g0xx_ll_adc.h ****                                            sequencer set to mode not fully configurable, refer to f
 896:Drivers/STM32G0xx_HAL_Driver/Inc/stm32g0xx_ll_adc.h ****                                            @ref LL_ADC_REG_SetSequencerConfigurable(). ADC group re
 897:Drivers/STM32G0xx_HAL_Driver/Inc/stm32g0xx_ll_adc.h ****                                            direction forward: from lowest channel number to highest
 898:Drivers/STM32G0xx_HAL_Driver/Inc/stm32g0xx_ll_adc.h ****                                            (scan of all ranks, ADC conversion of ranks with channel
 899:Drivers/STM32G0xx_HAL_Driver/Inc/stm32g0xx_ll_adc.h ****                                            sequencer). On some other STM32 series, this setting is 
 900:Drivers/STM32G0xx_HAL_Driver/Inc/stm32g0xx_ll_adc.h ****                                            and the default scan direction is forward. */
 901:Drivers/STM32G0xx_HAL_Driver/Inc/stm32g0xx_ll_adc.h **** #define LL_ADC_REG_SEQ_SCAN_DIR_BACKWARD   (ADC_CFGR1_SCANDIR) /*!< On this STM32 series, parameter
 902:Drivers/STM32G0xx_HAL_Driver/Inc/stm32g0xx_ll_adc.h ****                                            sequencer set to mode not fully configurable, refer to f
 903:Drivers/STM32G0xx_HAL_Driver/Inc/stm32g0xx_ll_adc.h ****                                            @ref LL_ADC_REG_SetSequencerConfigurable(). ADC group re
 904:Drivers/STM32G0xx_HAL_Driver/Inc/stm32g0xx_ll_adc.h ****                                            direction backward: from highest channel number to lowes
 905:Drivers/STM32G0xx_HAL_Driver/Inc/stm32g0xx_ll_adc.h ****                                            (scan of all ranks, ADC conversion of ranks with channel
 906:Drivers/STM32G0xx_HAL_Driver/Inc/stm32g0xx_ll_adc.h ****                                            sequencer) */
 907:Drivers/STM32G0xx_HAL_Driver/Inc/stm32g0xx_ll_adc.h **** /**
 908:Drivers/STM32G0xx_HAL_Driver/Inc/stm32g0xx_ll_adc.h ****   * @}
 909:Drivers/STM32G0xx_HAL_Driver/Inc/stm32g0xx_ll_adc.h ****   */
 910:Drivers/STM32G0xx_HAL_Driver/Inc/stm32g0xx_ll_adc.h **** 
 911:Drivers/STM32G0xx_HAL_Driver/Inc/stm32g0xx_ll_adc.h **** /** @defgroup ADC_LL_EC_REG_SEQ_DISCONT_MODE  ADC group regular - Sequencer discontinuous mode
 912:Drivers/STM32G0xx_HAL_Driver/Inc/stm32g0xx_ll_adc.h ****   * @{
 913:Drivers/STM32G0xx_HAL_Driver/Inc/stm32g0xx_ll_adc.h ****   */
ARM GAS  C:\Users\tugru\AppData\Local\Temp\ccFmcKQs.s 			page 35


 914:Drivers/STM32G0xx_HAL_Driver/Inc/stm32g0xx_ll_adc.h **** #define LL_ADC_REG_SEQ_DISCONT_DISABLE     (0x00000000UL)                          /*!< ADC group r
 915:Drivers/STM32G0xx_HAL_Driver/Inc/stm32g0xx_ll_adc.h ****                                            discontinuous mode disable */
 916:Drivers/STM32G0xx_HAL_Driver/Inc/stm32g0xx_ll_adc.h **** #define LL_ADC_REG_SEQ_DISCONT_1RANK       (ADC_CFGR1_DISCEN)                      /*!< ADC group r
 917:Drivers/STM32G0xx_HAL_Driver/Inc/stm32g0xx_ll_adc.h ****                                            discontinuous mode enable with sequence interruption eve
 918:Drivers/STM32G0xx_HAL_Driver/Inc/stm32g0xx_ll_adc.h **** /**
 919:Drivers/STM32G0xx_HAL_Driver/Inc/stm32g0xx_ll_adc.h ****   * @}
 920:Drivers/STM32G0xx_HAL_Driver/Inc/stm32g0xx_ll_adc.h ****   */
 921:Drivers/STM32G0xx_HAL_Driver/Inc/stm32g0xx_ll_adc.h **** 
 922:Drivers/STM32G0xx_HAL_Driver/Inc/stm32g0xx_ll_adc.h **** /** @defgroup ADC_LL_EC_REG_SEQ_RANKS  ADC group regular - Sequencer ranks
 923:Drivers/STM32G0xx_HAL_Driver/Inc/stm32g0xx_ll_adc.h ****   * @{
 924:Drivers/STM32G0xx_HAL_Driver/Inc/stm32g0xx_ll_adc.h ****   */
 925:Drivers/STM32G0xx_HAL_Driver/Inc/stm32g0xx_ll_adc.h **** #define LL_ADC_REG_RANK_1                  (ADC_REG_RANK_1_SQRX_BITOFFSET_POS) /*!< ADC group regul
 926:Drivers/STM32G0xx_HAL_Driver/Inc/stm32g0xx_ll_adc.h **** #define LL_ADC_REG_RANK_2                  (ADC_REG_RANK_2_SQRX_BITOFFSET_POS) /*!< ADC group regul
 927:Drivers/STM32G0xx_HAL_Driver/Inc/stm32g0xx_ll_adc.h **** #define LL_ADC_REG_RANK_3                  (ADC_REG_RANK_3_SQRX_BITOFFSET_POS) /*!< ADC group regul
 928:Drivers/STM32G0xx_HAL_Driver/Inc/stm32g0xx_ll_adc.h **** #define LL_ADC_REG_RANK_4                  (ADC_REG_RANK_4_SQRX_BITOFFSET_POS) /*!< ADC group regul
 929:Drivers/STM32G0xx_HAL_Driver/Inc/stm32g0xx_ll_adc.h **** #define LL_ADC_REG_RANK_5                  (ADC_REG_RANK_5_SQRX_BITOFFSET_POS) /*!< ADC group regul
 930:Drivers/STM32G0xx_HAL_Driver/Inc/stm32g0xx_ll_adc.h **** #define LL_ADC_REG_RANK_6                  (ADC_REG_RANK_6_SQRX_BITOFFSET_POS) /*!< ADC group regul
 931:Drivers/STM32G0xx_HAL_Driver/Inc/stm32g0xx_ll_adc.h **** #define LL_ADC_REG_RANK_7                  (ADC_REG_RANK_7_SQRX_BITOFFSET_POS) /*!< ADC group regul
 932:Drivers/STM32G0xx_HAL_Driver/Inc/stm32g0xx_ll_adc.h **** #define LL_ADC_REG_RANK_8                  (ADC_REG_RANK_8_SQRX_BITOFFSET_POS) /*!< ADC group regul
 933:Drivers/STM32G0xx_HAL_Driver/Inc/stm32g0xx_ll_adc.h **** /**
 934:Drivers/STM32G0xx_HAL_Driver/Inc/stm32g0xx_ll_adc.h ****   * @}
 935:Drivers/STM32G0xx_HAL_Driver/Inc/stm32g0xx_ll_adc.h ****   */
 936:Drivers/STM32G0xx_HAL_Driver/Inc/stm32g0xx_ll_adc.h **** 
 937:Drivers/STM32G0xx_HAL_Driver/Inc/stm32g0xx_ll_adc.h **** /** @defgroup ADC_LL_EC_CHANNEL_SAMPLINGTIME  Channel - Sampling time
 938:Drivers/STM32G0xx_HAL_Driver/Inc/stm32g0xx_ll_adc.h ****   * @{
 939:Drivers/STM32G0xx_HAL_Driver/Inc/stm32g0xx_ll_adc.h ****   */
 940:Drivers/STM32G0xx_HAL_Driver/Inc/stm32g0xx_ll_adc.h **** #define LL_ADC_SAMPLINGTIME_1CYCLE_5       (0x00000000UL)     /*!< Sampling time 1.5 ADC clock cycl
 941:Drivers/STM32G0xx_HAL_Driver/Inc/stm32g0xx_ll_adc.h **** #define LL_ADC_SAMPLINGTIME_3CYCLES_5      (ADC_SMPR_SMP1_0)  /*!< Sampling time 3.5 ADC clock cycl
 942:Drivers/STM32G0xx_HAL_Driver/Inc/stm32g0xx_ll_adc.h **** #define LL_ADC_SAMPLINGTIME_7CYCLES_5      (ADC_SMPR_SMP1_1)  /*!< Sampling time 7.5 ADC clock cycl
 943:Drivers/STM32G0xx_HAL_Driver/Inc/stm32g0xx_ll_adc.h **** #define LL_ADC_SAMPLINGTIME_12CYCLES_5     (ADC_SMPR_SMP1_1 \
 944:Drivers/STM32G0xx_HAL_Driver/Inc/stm32g0xx_ll_adc.h ****                                             | ADC_SMPR_SMP1_0) /*!< Sampling time 12.5 ADC clock cy
 945:Drivers/STM32G0xx_HAL_Driver/Inc/stm32g0xx_ll_adc.h **** #define LL_ADC_SAMPLINGTIME_19CYCLES_5     (ADC_SMPR_SMP1_2)  /*!< Sampling time 19.5 ADC clock cyc
 946:Drivers/STM32G0xx_HAL_Driver/Inc/stm32g0xx_ll_adc.h **** #define LL_ADC_SAMPLINGTIME_39CYCLES_5     (ADC_SMPR_SMP1_2 \
 947:Drivers/STM32G0xx_HAL_Driver/Inc/stm32g0xx_ll_adc.h ****                                             | ADC_SMPR_SMP1_0) /*!< Sampling time 39.5 ADC clock cy
 948:Drivers/STM32G0xx_HAL_Driver/Inc/stm32g0xx_ll_adc.h **** #define LL_ADC_SAMPLINGTIME_79CYCLES_5     (ADC_SMPR_SMP1_2 \
 949:Drivers/STM32G0xx_HAL_Driver/Inc/stm32g0xx_ll_adc.h ****                                             | ADC_SMPR_SMP1_1) /*!< Sampling time 79.5 ADC clock cy
 950:Drivers/STM32G0xx_HAL_Driver/Inc/stm32g0xx_ll_adc.h **** #define LL_ADC_SAMPLINGTIME_160CYCLES_5    (ADC_SMPR_SMP1_2 \
 951:Drivers/STM32G0xx_HAL_Driver/Inc/stm32g0xx_ll_adc.h ****                                             | ADC_SMPR_SMP1_1 \
 952:Drivers/STM32G0xx_HAL_Driver/Inc/stm32g0xx_ll_adc.h ****                                             | ADC_SMPR_SMP1_0) /*!< Sampling time 160.5 ADC clock c
 953:Drivers/STM32G0xx_HAL_Driver/Inc/stm32g0xx_ll_adc.h **** /**
 954:Drivers/STM32G0xx_HAL_Driver/Inc/stm32g0xx_ll_adc.h ****   * @}
 955:Drivers/STM32G0xx_HAL_Driver/Inc/stm32g0xx_ll_adc.h ****   */
 956:Drivers/STM32G0xx_HAL_Driver/Inc/stm32g0xx_ll_adc.h **** 
 957:Drivers/STM32G0xx_HAL_Driver/Inc/stm32g0xx_ll_adc.h **** /** @defgroup ADC_LL_EC_AWD_NUMBER Analog watchdog - Analog watchdog number
 958:Drivers/STM32G0xx_HAL_Driver/Inc/stm32g0xx_ll_adc.h ****   * @{
 959:Drivers/STM32G0xx_HAL_Driver/Inc/stm32g0xx_ll_adc.h ****   */
 960:Drivers/STM32G0xx_HAL_Driver/Inc/stm32g0xx_ll_adc.h **** #define LL_ADC_AWD1                        (ADC_AWD_CR1_CHANNEL_MASK \
 961:Drivers/STM32G0xx_HAL_Driver/Inc/stm32g0xx_ll_adc.h ****                                             | ADC_AWD_CR1_REGOFFSET) /*!< ADC analog watchdog numbe
 962:Drivers/STM32G0xx_HAL_Driver/Inc/stm32g0xx_ll_adc.h **** #define LL_ADC_AWD2                        (ADC_AWD_CR23_CHANNEL_MASK \
 963:Drivers/STM32G0xx_HAL_Driver/Inc/stm32g0xx_ll_adc.h ****                                             | ADC_AWD_CR2_REGOFFSET) /*!< ADC analog watchdog numbe
 964:Drivers/STM32G0xx_HAL_Driver/Inc/stm32g0xx_ll_adc.h **** #define LL_ADC_AWD3                        (ADC_AWD_CR23_CHANNEL_MASK \
 965:Drivers/STM32G0xx_HAL_Driver/Inc/stm32g0xx_ll_adc.h ****                                             | ADC_AWD_CR3_REGOFFSET) /*!< ADC analog watchdog numbe
 966:Drivers/STM32G0xx_HAL_Driver/Inc/stm32g0xx_ll_adc.h **** /**
 967:Drivers/STM32G0xx_HAL_Driver/Inc/stm32g0xx_ll_adc.h ****   * @}
 968:Drivers/STM32G0xx_HAL_Driver/Inc/stm32g0xx_ll_adc.h ****   */
 969:Drivers/STM32G0xx_HAL_Driver/Inc/stm32g0xx_ll_adc.h **** 
 970:Drivers/STM32G0xx_HAL_Driver/Inc/stm32g0xx_ll_adc.h **** /** @defgroup ADC_LL_EC_AWD_CHANNELS  Analog watchdog - Monitored channels
ARM GAS  C:\Users\tugru\AppData\Local\Temp\ccFmcKQs.s 			page 36


 971:Drivers/STM32G0xx_HAL_Driver/Inc/stm32g0xx_ll_adc.h ****   * @{
 972:Drivers/STM32G0xx_HAL_Driver/Inc/stm32g0xx_ll_adc.h ****   */
 973:Drivers/STM32G0xx_HAL_Driver/Inc/stm32g0xx_ll_adc.h **** #define LL_ADC_AWD_DISABLE                 (0x00000000UL)                           /*!< ADC analog
 974:Drivers/STM32G0xx_HAL_Driver/Inc/stm32g0xx_ll_adc.h ****                                            disabled */
 975:Drivers/STM32G0xx_HAL_Driver/Inc/stm32g0xx_ll_adc.h **** #define LL_ADC_AWD_ALL_CHANNELS_REG        (ADC_AWD_CR23_CHANNEL_MASK \
 976:Drivers/STM32G0xx_HAL_Driver/Inc/stm32g0xx_ll_adc.h ****                                             | ADC_CFGR1_AWD1EN)                     /*!< ADC analog
 977:Drivers/STM32G0xx_HAL_Driver/Inc/stm32g0xx_ll_adc.h ****                                            of all channels, converted by group regular only */
 978:Drivers/STM32G0xx_HAL_Driver/Inc/stm32g0xx_ll_adc.h **** #define LL_ADC_AWD_CHANNEL_0_REG           ((LL_ADC_CHANNEL_0  & ADC_CHANNEL_ID_MASK) \
 979:Drivers/STM32G0xx_HAL_Driver/Inc/stm32g0xx_ll_adc.h ****                                             | ADC_CFGR1_AWD1EN | ADC_CFGR1_AWD1SGL)  /*!< ADC analo
 980:Drivers/STM32G0xx_HAL_Driver/Inc/stm32g0xx_ll_adc.h ****                                            of ADC channel ADCx_IN0, converted by group regular only
 981:Drivers/STM32G0xx_HAL_Driver/Inc/stm32g0xx_ll_adc.h **** #define LL_ADC_AWD_CHANNEL_1_REG           ((LL_ADC_CHANNEL_1  & ADC_CHANNEL_ID_MASK) \
 982:Drivers/STM32G0xx_HAL_Driver/Inc/stm32g0xx_ll_adc.h ****                                             | ADC_CFGR1_AWD1EN | ADC_CFGR1_AWD1SGL)  /*!< ADC analo
 983:Drivers/STM32G0xx_HAL_Driver/Inc/stm32g0xx_ll_adc.h ****                                            of ADC channel ADCx_IN1, converted by group regular only
 984:Drivers/STM32G0xx_HAL_Driver/Inc/stm32g0xx_ll_adc.h **** #define LL_ADC_AWD_CHANNEL_2_REG           ((LL_ADC_CHANNEL_2  & ADC_CHANNEL_ID_MASK) \
 985:Drivers/STM32G0xx_HAL_Driver/Inc/stm32g0xx_ll_adc.h ****                                             | ADC_CFGR1_AWD1EN | ADC_CFGR1_AWD1SGL)  /*!< ADC analo
 986:Drivers/STM32G0xx_HAL_Driver/Inc/stm32g0xx_ll_adc.h ****                                            of ADC channel ADCx_IN2, converted by group regular only
 987:Drivers/STM32G0xx_HAL_Driver/Inc/stm32g0xx_ll_adc.h **** #define LL_ADC_AWD_CHANNEL_3_REG           ((LL_ADC_CHANNEL_3  & ADC_CHANNEL_ID_MASK) \
 988:Drivers/STM32G0xx_HAL_Driver/Inc/stm32g0xx_ll_adc.h ****                                             | ADC_CFGR1_AWD1EN | ADC_CFGR1_AWD1SGL)  /*!< ADC analo
 989:Drivers/STM32G0xx_HAL_Driver/Inc/stm32g0xx_ll_adc.h ****                                            of ADC channel ADCx_IN3, converted by group regular only
 990:Drivers/STM32G0xx_HAL_Driver/Inc/stm32g0xx_ll_adc.h **** #define LL_ADC_AWD_CHANNEL_4_REG           ((LL_ADC_CHANNEL_4  & ADC_CHANNEL_ID_MASK) \
 991:Drivers/STM32G0xx_HAL_Driver/Inc/stm32g0xx_ll_adc.h ****                                             | ADC_CFGR1_AWD1EN | ADC_CFGR1_AWD1SGL)  /*!< ADC analo
 992:Drivers/STM32G0xx_HAL_Driver/Inc/stm32g0xx_ll_adc.h ****                                            of ADC channel ADCx_IN4, converted by group regular only
 993:Drivers/STM32G0xx_HAL_Driver/Inc/stm32g0xx_ll_adc.h **** #define LL_ADC_AWD_CHANNEL_5_REG           ((LL_ADC_CHANNEL_5  & ADC_CHANNEL_ID_MASK) \
 994:Drivers/STM32G0xx_HAL_Driver/Inc/stm32g0xx_ll_adc.h ****                                             | ADC_CFGR1_AWD1EN | ADC_CFGR1_AWD1SGL)  /*!< ADC analo
 995:Drivers/STM32G0xx_HAL_Driver/Inc/stm32g0xx_ll_adc.h ****                                            of ADC channel ADCx_IN5, converted by group regular only
 996:Drivers/STM32G0xx_HAL_Driver/Inc/stm32g0xx_ll_adc.h **** #define LL_ADC_AWD_CHANNEL_6_REG           ((LL_ADC_CHANNEL_6  & ADC_CHANNEL_ID_MASK) \
 997:Drivers/STM32G0xx_HAL_Driver/Inc/stm32g0xx_ll_adc.h ****                                             | ADC_CFGR1_AWD1EN | ADC_CFGR1_AWD1SGL)  /*!< ADC analo
 998:Drivers/STM32G0xx_HAL_Driver/Inc/stm32g0xx_ll_adc.h ****                                            of ADC channel ADCx_IN6, converted by group regular only
 999:Drivers/STM32G0xx_HAL_Driver/Inc/stm32g0xx_ll_adc.h **** #define LL_ADC_AWD_CHANNEL_7_REG           ((LL_ADC_CHANNEL_7  & ADC_CHANNEL_ID_MASK) \
1000:Drivers/STM32G0xx_HAL_Driver/Inc/stm32g0xx_ll_adc.h ****                                             | ADC_CFGR1_AWD1EN | ADC_CFGR1_AWD1SGL)  /*!< ADC analo
1001:Drivers/STM32G0xx_HAL_Driver/Inc/stm32g0xx_ll_adc.h ****                                            of ADC channel ADCx_IN7, converted by group regular only
1002:Drivers/STM32G0xx_HAL_Driver/Inc/stm32g0xx_ll_adc.h **** #define LL_ADC_AWD_CHANNEL_8_REG           ((LL_ADC_CHANNEL_8  & ADC_CHANNEL_ID_MASK) \
1003:Drivers/STM32G0xx_HAL_Driver/Inc/stm32g0xx_ll_adc.h ****                                             | ADC_CFGR1_AWD1EN | ADC_CFGR1_AWD1SGL)  /*!< ADC analo
1004:Drivers/STM32G0xx_HAL_Driver/Inc/stm32g0xx_ll_adc.h ****                                            of ADC channel ADCx_IN8, converted by group regular only
1005:Drivers/STM32G0xx_HAL_Driver/Inc/stm32g0xx_ll_adc.h **** #define LL_ADC_AWD_CHANNEL_9_REG           ((LL_ADC_CHANNEL_9  & ADC_CHANNEL_ID_MASK) \
1006:Drivers/STM32G0xx_HAL_Driver/Inc/stm32g0xx_ll_adc.h ****                                             | ADC_CFGR1_AWD1EN | ADC_CFGR1_AWD1SGL)  /*!< ADC analo
1007:Drivers/STM32G0xx_HAL_Driver/Inc/stm32g0xx_ll_adc.h ****                                            of ADC channel ADCx_IN9, converted by group regular only
1008:Drivers/STM32G0xx_HAL_Driver/Inc/stm32g0xx_ll_adc.h **** #define LL_ADC_AWD_CHANNEL_10_REG          ((LL_ADC_CHANNEL_10 & ADC_CHANNEL_ID_MASK) \
1009:Drivers/STM32G0xx_HAL_Driver/Inc/stm32g0xx_ll_adc.h ****                                             | ADC_CFGR1_AWD1EN | ADC_CFGR1_AWD1SGL)  /*!< ADC analo
1010:Drivers/STM32G0xx_HAL_Driver/Inc/stm32g0xx_ll_adc.h ****                                            of ADC channel ADCx_IN10, converted by group regular onl
1011:Drivers/STM32G0xx_HAL_Driver/Inc/stm32g0xx_ll_adc.h **** #define LL_ADC_AWD_CHANNEL_11_REG          ((LL_ADC_CHANNEL_11 & ADC_CHANNEL_ID_MASK) \
1012:Drivers/STM32G0xx_HAL_Driver/Inc/stm32g0xx_ll_adc.h ****                                             | ADC_CFGR1_AWD1EN | ADC_CFGR1_AWD1SGL)  /*!< ADC analo
1013:Drivers/STM32G0xx_HAL_Driver/Inc/stm32g0xx_ll_adc.h ****                                            of ADC channel ADCx_IN11, converted by group regular onl
1014:Drivers/STM32G0xx_HAL_Driver/Inc/stm32g0xx_ll_adc.h **** #define LL_ADC_AWD_CHANNEL_12_REG          ((LL_ADC_CHANNEL_12 & ADC_CHANNEL_ID_MASK) \
1015:Drivers/STM32G0xx_HAL_Driver/Inc/stm32g0xx_ll_adc.h ****                                             | ADC_CFGR1_AWD1EN | ADC_CFGR1_AWD1SGL)  /*!< ADC analo
1016:Drivers/STM32G0xx_HAL_Driver/Inc/stm32g0xx_ll_adc.h ****                                            of ADC channel ADCx_IN12, converted by group regular onl
1017:Drivers/STM32G0xx_HAL_Driver/Inc/stm32g0xx_ll_adc.h **** #define LL_ADC_AWD_CHANNEL_13_REG          ((LL_ADC_CHANNEL_13 & ADC_CHANNEL_ID_MASK) \
1018:Drivers/STM32G0xx_HAL_Driver/Inc/stm32g0xx_ll_adc.h ****                                             | ADC_CFGR1_AWD1EN | ADC_CFGR1_AWD1SGL)  /*!< ADC analo
1019:Drivers/STM32G0xx_HAL_Driver/Inc/stm32g0xx_ll_adc.h ****                                            of ADC channel ADCx_IN13, converted by group regular onl
1020:Drivers/STM32G0xx_HAL_Driver/Inc/stm32g0xx_ll_adc.h **** #define LL_ADC_AWD_CHANNEL_14_REG          ((LL_ADC_CHANNEL_14 & ADC_CHANNEL_ID_MASK) \
1021:Drivers/STM32G0xx_HAL_Driver/Inc/stm32g0xx_ll_adc.h ****                                             | ADC_CFGR1_AWD1EN | ADC_CFGR1_AWD1SGL)  /*!< ADC analo
1022:Drivers/STM32G0xx_HAL_Driver/Inc/stm32g0xx_ll_adc.h ****                                            of ADC channel ADCx_IN14, converted by group regular onl
1023:Drivers/STM32G0xx_HAL_Driver/Inc/stm32g0xx_ll_adc.h **** #define LL_ADC_AWD_CHANNEL_15_REG          ((LL_ADC_CHANNEL_15 & ADC_CHANNEL_ID_MASK) \
1024:Drivers/STM32G0xx_HAL_Driver/Inc/stm32g0xx_ll_adc.h ****                                             | ADC_CFGR1_AWD1EN | ADC_CFGR1_AWD1SGL)  /*!< ADC analo
1025:Drivers/STM32G0xx_HAL_Driver/Inc/stm32g0xx_ll_adc.h ****                                            of ADC channel ADCx_IN15, converted by group regular onl
1026:Drivers/STM32G0xx_HAL_Driver/Inc/stm32g0xx_ll_adc.h **** #define LL_ADC_AWD_CHANNEL_16_REG          ((LL_ADC_CHANNEL_16 & ADC_CHANNEL_ID_MASK) \
1027:Drivers/STM32G0xx_HAL_Driver/Inc/stm32g0xx_ll_adc.h ****                                             | ADC_CFGR1_AWD1EN | ADC_CFGR1_AWD1SGL) /*!< ADC analog
ARM GAS  C:\Users\tugru\AppData\Local\Temp\ccFmcKQs.s 			page 37


1028:Drivers/STM32G0xx_HAL_Driver/Inc/stm32g0xx_ll_adc.h ****                                            of ADC channel ADCx_IN16, converted by group regular onl
1029:Drivers/STM32G0xx_HAL_Driver/Inc/stm32g0xx_ll_adc.h **** #define LL_ADC_AWD_CHANNEL_17_REG          ((LL_ADC_CHANNEL_17 & ADC_CHANNEL_ID_MASK) \
1030:Drivers/STM32G0xx_HAL_Driver/Inc/stm32g0xx_ll_adc.h ****                                             | ADC_CFGR1_AWD1EN | ADC_CFGR1_AWD1SGL) /*!< ADC analog
1031:Drivers/STM32G0xx_HAL_Driver/Inc/stm32g0xx_ll_adc.h ****                                            of ADC channel ADCx_IN17, converted by group regular onl
1032:Drivers/STM32G0xx_HAL_Driver/Inc/stm32g0xx_ll_adc.h **** #define LL_ADC_AWD_CHANNEL_18_REG          ((LL_ADC_CHANNEL_18 & ADC_CHANNEL_ID_MASK) \
1033:Drivers/STM32G0xx_HAL_Driver/Inc/stm32g0xx_ll_adc.h ****                                             | ADC_CFGR1_AWD1EN | ADC_CFGR1_AWD1SGL) /*!< ADC analog
1034:Drivers/STM32G0xx_HAL_Driver/Inc/stm32g0xx_ll_adc.h ****                                            of ADC channel ADCx_IN18, converted by group regular onl
1035:Drivers/STM32G0xx_HAL_Driver/Inc/stm32g0xx_ll_adc.h **** #define LL_ADC_AWD_CH_VREFINT_REG          ((LL_ADC_CHANNEL_VREFINT    & ADC_CHANNEL_ID_MASK) \
1036:Drivers/STM32G0xx_HAL_Driver/Inc/stm32g0xx_ll_adc.h ****                                             | ADC_CFGR1_AWD1EN | ADC_CFGR1_AWD1SGL) /*!< ADC analog
1037:Drivers/STM32G0xx_HAL_Driver/Inc/stm32g0xx_ll_adc.h ****                                            of ADC internal channel connected to VrefInt: Internal
1038:Drivers/STM32G0xx_HAL_Driver/Inc/stm32g0xx_ll_adc.h ****                                            voltage reference, converted by group regular only */
1039:Drivers/STM32G0xx_HAL_Driver/Inc/stm32g0xx_ll_adc.h **** #define LL_ADC_AWD_CH_TEMPSENSOR_REG       ((LL_ADC_CHANNEL_TEMPSENSOR & ADC_CHANNEL_ID_MASK) \
1040:Drivers/STM32G0xx_HAL_Driver/Inc/stm32g0xx_ll_adc.h ****                                             | ADC_CFGR1_AWD1EN | ADC_CFGR1_AWD1SGL) /*!< ADC analog
1041:Drivers/STM32G0xx_HAL_Driver/Inc/stm32g0xx_ll_adc.h ****                                            of ADC internal channel connected to internal temperatur
1042:Drivers/STM32G0xx_HAL_Driver/Inc/stm32g0xx_ll_adc.h ****                                            converted by group regular only */
1043:Drivers/STM32G0xx_HAL_Driver/Inc/stm32g0xx_ll_adc.h **** #define LL_ADC_AWD_CH_VBAT_REG             ((LL_ADC_CHANNEL_VBAT       & ADC_CHANNEL_ID_MASK) \
1044:Drivers/STM32G0xx_HAL_Driver/Inc/stm32g0xx_ll_adc.h ****                                             | ADC_CFGR1_AWD1EN | ADC_CFGR1_AWD1SGL) /*!< ADC analog
1045:Drivers/STM32G0xx_HAL_Driver/Inc/stm32g0xx_ll_adc.h ****                                            of ADC internal channel connected to Vbat/3: Vbat
1046:Drivers/STM32G0xx_HAL_Driver/Inc/stm32g0xx_ll_adc.h ****                                            voltage through a divider ladder of factor 1/3 to have c
1047:Drivers/STM32G0xx_HAL_Driver/Inc/stm32g0xx_ll_adc.h ****                                            below Vdda, converted by group regular only */
1048:Drivers/STM32G0xx_HAL_Driver/Inc/stm32g0xx_ll_adc.h **** /**
1049:Drivers/STM32G0xx_HAL_Driver/Inc/stm32g0xx_ll_adc.h ****   * @}
1050:Drivers/STM32G0xx_HAL_Driver/Inc/stm32g0xx_ll_adc.h ****   */
1051:Drivers/STM32G0xx_HAL_Driver/Inc/stm32g0xx_ll_adc.h **** 
1052:Drivers/STM32G0xx_HAL_Driver/Inc/stm32g0xx_ll_adc.h **** /** @defgroup ADC_LL_EC_AWD_THRESHOLDS  Analog watchdog - Thresholds
1053:Drivers/STM32G0xx_HAL_Driver/Inc/stm32g0xx_ll_adc.h ****   * @{
1054:Drivers/STM32G0xx_HAL_Driver/Inc/stm32g0xx_ll_adc.h ****   */
1055:Drivers/STM32G0xx_HAL_Driver/Inc/stm32g0xx_ll_adc.h **** #define LL_ADC_AWD_THRESHOLD_HIGH          (ADC_AWD1TR_HT1)   /*!< ADC analog watchdog threshold hi
1056:Drivers/STM32G0xx_HAL_Driver/Inc/stm32g0xx_ll_adc.h **** #define LL_ADC_AWD_THRESHOLD_LOW           (ADC_AWD1TR_LT1)   /*!< ADC analog watchdog threshold lo
1057:Drivers/STM32G0xx_HAL_Driver/Inc/stm32g0xx_ll_adc.h **** #define LL_ADC_AWD_THRESHOLDS_HIGH_LOW     (ADC_AWD1TR_HT1 \
1058:Drivers/STM32G0xx_HAL_Driver/Inc/stm32g0xx_ll_adc.h ****                                             | ADC_AWD1TR_LT1)  /*!< ADC analog watchdog both thresh
1059:Drivers/STM32G0xx_HAL_Driver/Inc/stm32g0xx_ll_adc.h ****                                                                    concatenated into the same data 
1060:Drivers/STM32G0xx_HAL_Driver/Inc/stm32g0xx_ll_adc.h **** /**
1061:Drivers/STM32G0xx_HAL_Driver/Inc/stm32g0xx_ll_adc.h ****   * @}
1062:Drivers/STM32G0xx_HAL_Driver/Inc/stm32g0xx_ll_adc.h ****   */
1063:Drivers/STM32G0xx_HAL_Driver/Inc/stm32g0xx_ll_adc.h **** 
1064:Drivers/STM32G0xx_HAL_Driver/Inc/stm32g0xx_ll_adc.h **** /** @defgroup ADC_LL_EC_OVS_SCOPE  Oversampling - Oversampling scope
1065:Drivers/STM32G0xx_HAL_Driver/Inc/stm32g0xx_ll_adc.h ****   * @{
1066:Drivers/STM32G0xx_HAL_Driver/Inc/stm32g0xx_ll_adc.h ****   */
1067:Drivers/STM32G0xx_HAL_Driver/Inc/stm32g0xx_ll_adc.h **** #define LL_ADC_OVS_DISABLE                 (0x00000000UL)                      /*!< ADC oversamplin
1068:Drivers/STM32G0xx_HAL_Driver/Inc/stm32g0xx_ll_adc.h **** #define LL_ADC_OVS_GRP_REGULAR_CONTINUED   (ADC_CFGR2_OVSE)                    /*!< ADC oversamplin
1069:Drivers/STM32G0xx_HAL_Driver/Inc/stm32g0xx_ll_adc.h ****                                            ADC group regular. Literal suffix "continued" is kept fo
1070:Drivers/STM32G0xx_HAL_Driver/Inc/stm32g0xx_ll_adc.h ****                                            with other STM32 devices featuring ADC group injected, i
1071:Drivers/STM32G0xx_HAL_Driver/Inc/stm32g0xx_ll_adc.h ****                                            oversampling scope parameters are available. */
1072:Drivers/STM32G0xx_HAL_Driver/Inc/stm32g0xx_ll_adc.h **** /**
1073:Drivers/STM32G0xx_HAL_Driver/Inc/stm32g0xx_ll_adc.h ****   * @}
1074:Drivers/STM32G0xx_HAL_Driver/Inc/stm32g0xx_ll_adc.h ****   */
1075:Drivers/STM32G0xx_HAL_Driver/Inc/stm32g0xx_ll_adc.h **** 
1076:Drivers/STM32G0xx_HAL_Driver/Inc/stm32g0xx_ll_adc.h **** /** @defgroup ADC_LL_EC_OVS_DISCONT_MODE  Oversampling - Discontinuous mode
1077:Drivers/STM32G0xx_HAL_Driver/Inc/stm32g0xx_ll_adc.h ****   * @{
1078:Drivers/STM32G0xx_HAL_Driver/Inc/stm32g0xx_ll_adc.h ****   */
1079:Drivers/STM32G0xx_HAL_Driver/Inc/stm32g0xx_ll_adc.h **** #define LL_ADC_OVS_REG_CONT                (0x00000000UL)     /*!< ADC oversampling discontinuous m
1080:Drivers/STM32G0xx_HAL_Driver/Inc/stm32g0xx_ll_adc.h **** (all conversions of oversampling ratio are done from 1 trigger) */
1081:Drivers/STM32G0xx_HAL_Driver/Inc/stm32g0xx_ll_adc.h **** #define LL_ADC_OVS_REG_DISCONT             (ADC_CFGR2_TOVS)   /*!< ADC oversampling discontinuous m
1082:Drivers/STM32G0xx_HAL_Driver/Inc/stm32g0xx_ll_adc.h ****                                            mode (each conversion of oversampling ratio needs a trig
1083:Drivers/STM32G0xx_HAL_Driver/Inc/stm32g0xx_ll_adc.h **** /**
1084:Drivers/STM32G0xx_HAL_Driver/Inc/stm32g0xx_ll_adc.h ****   * @}
ARM GAS  C:\Users\tugru\AppData\Local\Temp\ccFmcKQs.s 			page 38


1085:Drivers/STM32G0xx_HAL_Driver/Inc/stm32g0xx_ll_adc.h ****   */
1086:Drivers/STM32G0xx_HAL_Driver/Inc/stm32g0xx_ll_adc.h **** 
1087:Drivers/STM32G0xx_HAL_Driver/Inc/stm32g0xx_ll_adc.h **** /** @defgroup ADC_LL_EC_OVS_RATIO  Oversampling - Ratio
1088:Drivers/STM32G0xx_HAL_Driver/Inc/stm32g0xx_ll_adc.h ****   * @{
1089:Drivers/STM32G0xx_HAL_Driver/Inc/stm32g0xx_ll_adc.h ****   */
1090:Drivers/STM32G0xx_HAL_Driver/Inc/stm32g0xx_ll_adc.h **** #define LL_ADC_OVS_RATIO_2                 (0x00000000UL)                        /*!< ADC oversampl
1091:Drivers/STM32G0xx_HAL_Driver/Inc/stm32g0xx_ll_adc.h ****                                            (sum of conversions data computed to result as oversampl
1092:Drivers/STM32G0xx_HAL_Driver/Inc/stm32g0xx_ll_adc.h ****                                            (before potential shift) */
1093:Drivers/STM32G0xx_HAL_Driver/Inc/stm32g0xx_ll_adc.h **** #define LL_ADC_OVS_RATIO_4                 (ADC_CFGR2_OVSR_0)                    /*!< ADC oversampl
1094:Drivers/STM32G0xx_HAL_Driver/Inc/stm32g0xx_ll_adc.h ****                                            (sum of conversions data computed to result as oversampl
1095:Drivers/STM32G0xx_HAL_Driver/Inc/stm32g0xx_ll_adc.h ****                                            (before potential shift) */
1096:Drivers/STM32G0xx_HAL_Driver/Inc/stm32g0xx_ll_adc.h **** #define LL_ADC_OVS_RATIO_8                 (ADC_CFGR2_OVSR_1)                    /*!< ADC oversampl
1097:Drivers/STM32G0xx_HAL_Driver/Inc/stm32g0xx_ll_adc.h ****                                            (sum of conversions data computed to result as oversampl
1098:Drivers/STM32G0xx_HAL_Driver/Inc/stm32g0xx_ll_adc.h ****                                            (before potential shift) */
1099:Drivers/STM32G0xx_HAL_Driver/Inc/stm32g0xx_ll_adc.h **** #define LL_ADC_OVS_RATIO_16                (ADC_CFGR2_OVSR_1 | ADC_CFGR2_OVSR_0) /*!< ADC oversampl
1100:Drivers/STM32G0xx_HAL_Driver/Inc/stm32g0xx_ll_adc.h ****                                            (sum of conversions data computed to result as oversampl
1101:Drivers/STM32G0xx_HAL_Driver/Inc/stm32g0xx_ll_adc.h ****                                            (before potential shift) */
1102:Drivers/STM32G0xx_HAL_Driver/Inc/stm32g0xx_ll_adc.h **** #define LL_ADC_OVS_RATIO_32                (ADC_CFGR2_OVSR_2)                    /*!< ADC oversampl
1103:Drivers/STM32G0xx_HAL_Driver/Inc/stm32g0xx_ll_adc.h ****                                            (sum of conversions data computed to result as oversampl
1104:Drivers/STM32G0xx_HAL_Driver/Inc/stm32g0xx_ll_adc.h ****                                            (before potential shift) */
1105:Drivers/STM32G0xx_HAL_Driver/Inc/stm32g0xx_ll_adc.h **** #define LL_ADC_OVS_RATIO_64                (ADC_CFGR2_OVSR_2 | ADC_CFGR2_OVSR_0) /*!< ADC oversampl
1106:Drivers/STM32G0xx_HAL_Driver/Inc/stm32g0xx_ll_adc.h ****                                            (sum of conversions data computed to result as oversampl
1107:Drivers/STM32G0xx_HAL_Driver/Inc/stm32g0xx_ll_adc.h ****                                            (before potential shift) */
1108:Drivers/STM32G0xx_HAL_Driver/Inc/stm32g0xx_ll_adc.h **** #define LL_ADC_OVS_RATIO_128               (ADC_CFGR2_OVSR_2 | ADC_CFGR2_OVSR_1) /*!< ADC oversampl
1109:Drivers/STM32G0xx_HAL_Driver/Inc/stm32g0xx_ll_adc.h ****                                            (sum of conversions data computed to result as oversampl
1110:Drivers/STM32G0xx_HAL_Driver/Inc/stm32g0xx_ll_adc.h ****                                            (before potential shift) */
1111:Drivers/STM32G0xx_HAL_Driver/Inc/stm32g0xx_ll_adc.h **** #define LL_ADC_OVS_RATIO_256               (ADC_CFGR2_OVSR_2 | ADC_CFGR2_OVSR_1 \
1112:Drivers/STM32G0xx_HAL_Driver/Inc/stm32g0xx_ll_adc.h ****                                             | ADC_CFGR2_OVSR_0)                   /*!< ADC oversamp
1113:Drivers/STM32G0xx_HAL_Driver/Inc/stm32g0xx_ll_adc.h ****                                            (sum of conversions data computed to result as oversampl
1114:Drivers/STM32G0xx_HAL_Driver/Inc/stm32g0xx_ll_adc.h ****                                            (before potential shift) */
1115:Drivers/STM32G0xx_HAL_Driver/Inc/stm32g0xx_ll_adc.h **** /**
1116:Drivers/STM32G0xx_HAL_Driver/Inc/stm32g0xx_ll_adc.h ****   * @}
1117:Drivers/STM32G0xx_HAL_Driver/Inc/stm32g0xx_ll_adc.h ****   */
1118:Drivers/STM32G0xx_HAL_Driver/Inc/stm32g0xx_ll_adc.h **** 
1119:Drivers/STM32G0xx_HAL_Driver/Inc/stm32g0xx_ll_adc.h **** /** @defgroup ADC_LL_EC_OVS_SHIFT  Oversampling - Data right shift
1120:Drivers/STM32G0xx_HAL_Driver/Inc/stm32g0xx_ll_adc.h ****   * @{
1121:Drivers/STM32G0xx_HAL_Driver/Inc/stm32g0xx_ll_adc.h ****   */
1122:Drivers/STM32G0xx_HAL_Driver/Inc/stm32g0xx_ll_adc.h **** #define LL_ADC_OVS_SHIFT_NONE              (0x00000000UL)                        /*!< ADC oversampl
1123:Drivers/STM32G0xx_HAL_Driver/Inc/stm32g0xx_ll_adc.h ****                                            (sum of the ADC conversions data is not divided to resul
1124:Drivers/STM32G0xx_HAL_Driver/Inc/stm32g0xx_ll_adc.h ****                                            conversion data) */
1125:Drivers/STM32G0xx_HAL_Driver/Inc/stm32g0xx_ll_adc.h **** #define LL_ADC_OVS_SHIFT_RIGHT_1           (ADC_CFGR2_OVSS_0)                    /*!< ADC oversampl
1126:Drivers/STM32G0xx_HAL_Driver/Inc/stm32g0xx_ll_adc.h ****                                            (sum of the ADC conversions data (after OVS ratio) is di
1127:Drivers/STM32G0xx_HAL_Driver/Inc/stm32g0xx_ll_adc.h ****                                            to result as oversampling conversion data) */
1128:Drivers/STM32G0xx_HAL_Driver/Inc/stm32g0xx_ll_adc.h **** #define LL_ADC_OVS_SHIFT_RIGHT_2           (ADC_CFGR2_OVSS_1)                    /*!< ADC oversampl
1129:Drivers/STM32G0xx_HAL_Driver/Inc/stm32g0xx_ll_adc.h ****                                            (sum of the ADC conversions data (after OVS ratio) is di
1130:Drivers/STM32G0xx_HAL_Driver/Inc/stm32g0xx_ll_adc.h ****                                            to result as oversampling conversion data) */
1131:Drivers/STM32G0xx_HAL_Driver/Inc/stm32g0xx_ll_adc.h **** #define LL_ADC_OVS_SHIFT_RIGHT_3           (ADC_CFGR2_OVSS_1 | ADC_CFGR2_OVSS_0) /*!< ADC oversampl
1132:Drivers/STM32G0xx_HAL_Driver/Inc/stm32g0xx_ll_adc.h ****                                            (sum of the ADC conversions data (after OVS ratio) is di
1133:Drivers/STM32G0xx_HAL_Driver/Inc/stm32g0xx_ll_adc.h ****                                            to result as oversampling conversion data) */
1134:Drivers/STM32G0xx_HAL_Driver/Inc/stm32g0xx_ll_adc.h **** #define LL_ADC_OVS_SHIFT_RIGHT_4           (ADC_CFGR2_OVSS_2)                    /*!< ADC oversampl
1135:Drivers/STM32G0xx_HAL_Driver/Inc/stm32g0xx_ll_adc.h ****                                            (sum of the ADC conversions data (after OVS ratio) is di
1136:Drivers/STM32G0xx_HAL_Driver/Inc/stm32g0xx_ll_adc.h ****                                            to result as oversampling conversion data) */
1137:Drivers/STM32G0xx_HAL_Driver/Inc/stm32g0xx_ll_adc.h **** #define LL_ADC_OVS_SHIFT_RIGHT_5           (ADC_CFGR2_OVSS_2 | ADC_CFGR2_OVSS_0) /*!< ADC oversampl
1138:Drivers/STM32G0xx_HAL_Driver/Inc/stm32g0xx_ll_adc.h ****                                            (sum of the ADC conversions data (after OVS ratio) is di
1139:Drivers/STM32G0xx_HAL_Driver/Inc/stm32g0xx_ll_adc.h ****                                            to result as oversampling conversion data) */
1140:Drivers/STM32G0xx_HAL_Driver/Inc/stm32g0xx_ll_adc.h **** #define LL_ADC_OVS_SHIFT_RIGHT_6           (ADC_CFGR2_OVSS_2 | ADC_CFGR2_OVSS_1) /*!< ADC oversampl
1141:Drivers/STM32G0xx_HAL_Driver/Inc/stm32g0xx_ll_adc.h ****                                            (sum of the ADC conversions data (after OVS ratio) is di
ARM GAS  C:\Users\tugru\AppData\Local\Temp\ccFmcKQs.s 			page 39


1142:Drivers/STM32G0xx_HAL_Driver/Inc/stm32g0xx_ll_adc.h ****                                            to result as oversampling conversion data) */
1143:Drivers/STM32G0xx_HAL_Driver/Inc/stm32g0xx_ll_adc.h **** #define LL_ADC_OVS_SHIFT_RIGHT_7           (ADC_CFGR2_OVSS_2 | ADC_CFGR2_OVSS_1 \
1144:Drivers/STM32G0xx_HAL_Driver/Inc/stm32g0xx_ll_adc.h ****                                             | ADC_CFGR2_OVSS_0)                   /*!< ADC oversamp
